Archive member included because of file (symbol)

d:/research/pwc/arccore/com.arccore.a4.arm.bundle-win32.win32.x86_64/msys/opt/arm-none-eabi/bin/../lib/gcc/arm-none-eabi/4.8.2/../../../../arm-none-eabi/lib/thumb/armv7-m\libc.a(lib_a-abort.o)
                              EcuM.o (abort)
d:/research/pwc/arccore/com.arccore.a4.arm.bundle-win32.win32.x86_64/msys/opt/arm-none-eabi/bin/../lib/gcc/arm-none-eabi/4.8.2/../../../../arm-none-eabi/lib/thumb/armv7-m\libc.a(lib_a-fopen.o)
                              ramlog.o (fopen)
d:/research/pwc/arccore/com.arccore.a4.arm.bundle-win32.win32.x86_64/msys/opt/arm-none-eabi/bin/../lib/gcc/arm-none-eabi/4.8.2/../../../../arm-none-eabi/lib/thumb/armv7-m\libc.a(lib_a-fseek.o)
                              d:/research/pwc/arccore/com.arccore.a4.arm.bundle-win32.win32.x86_64/msys/opt/arm-none-eabi/bin/../lib/gcc/arm-none-eabi/4.8.2/../../../../arm-none-eabi/lib/thumb/armv7-m\libc.a(lib_a-fopen.o) (_fseek_r)
d:/research/pwc/arccore/com.arccore.a4.arm.bundle-win32.win32.x86_64/msys/opt/arm-none-eabi/bin/../lib/gcc/arm-none-eabi/4.8.2/../../../../arm-none-eabi/lib/thumb/armv7-m\libc.a(lib_a-fstatr.o)
                              d:/research/pwc/arccore/com.arccore.a4.arm.bundle-win32.win32.x86_64/msys/opt/arm-none-eabi/bin/../lib/gcc/arm-none-eabi/4.8.2/../../../../arm-none-eabi/lib/thumb/armv7-m\libc.a(lib_a-fseek.o) (_fstat_r)
d:/research/pwc/arccore/com.arccore.a4.arm.bundle-win32.win32.x86_64/msys/opt/arm-none-eabi/bin/../lib/gcc/arm-none-eabi/4.8.2/../../../../arm-none-eabi/lib/thumb/armv7-m\libc.a(lib_a-impure.o)
                              d:/research/pwc/arccore/com.arccore.a4.arm.bundle-win32.win32.x86_64/msys/opt/arm-none-eabi/bin/../lib/gcc/arm-none-eabi/4.8.2/../../../../arm-none-eabi/lib/thumb/armv7-m\libc.a(lib_a-fopen.o) (_impure_ptr)
d:/research/pwc/arccore/com.arccore.a4.arm.bundle-win32.win32.x86_64/msys/opt/arm-none-eabi/bin/../lib/gcc/arm-none-eabi/4.8.2/../../../../arm-none-eabi/lib/thumb/armv7-m\libc.a(lib_a-makebuf.o)
                              d:/research/pwc/arccore/com.arccore.a4.arm.bundle-win32.win32.x86_64/msys/opt/arm-none-eabi/bin/../lib/gcc/arm-none-eabi/4.8.2/../../../../arm-none-eabi/lib/thumb/armv7-m\libc.a(lib_a-fseek.o) (__smakebuf_r)
d:/research/pwc/arccore/com.arccore.a4.arm.bundle-win32.win32.x86_64/msys/opt/arm-none-eabi/bin/../lib/gcc/arm-none-eabi/4.8.2/../../../../arm-none-eabi/lib/thumb/armv7-m\libc.a(lib_a-malloc.o)
                              cirq_buffer.o (malloc)
d:/research/pwc/arccore/com.arccore.a4.arm.bundle-win32.win32.x86_64/msys/opt/arm-none-eabi/bin/../lib/gcc/arm-none-eabi/4.8.2/../../../../arm-none-eabi/lib/thumb/armv7-m\libc.a(lib_a-mallocr.o)
                              d:/research/pwc/arccore/com.arccore.a4.arm.bundle-win32.win32.x86_64/msys/opt/arm-none-eabi/bin/../lib/gcc/arm-none-eabi/4.8.2/../../../../arm-none-eabi/lib/thumb/armv7-m\libc.a(lib_a-makebuf.o) (_malloc_r)
d:/research/pwc/arccore/com.arccore.a4.arm.bundle-win32.win32.x86_64/msys/opt/arm-none-eabi/bin/../lib/gcc/arm-none-eabi/4.8.2/../../../../arm-none-eabi/lib/thumb/armv7-m\libc.a(lib_a-memcmp.o)
                              Com_Com.o (memcmp)
d:/research/pwc/arccore/com.arccore.a4.arm.bundle-win32.win32.x86_64/msys/opt/arm-none-eabi/bin/../lib/gcc/arm-none-eabi/4.8.2/../../../../arm-none-eabi/lib/thumb/armv7-m\libc.a(lib_a-memcpy-stub.o)
                              Rte_Fifo.o (memcpy)
d:/research/pwc/arccore/com.arccore.a4.arm.bundle-win32.win32.x86_64/msys/opt/arm-none-eabi/bin/../lib/gcc/arm-none-eabi/4.8.2/../../../../arm-none-eabi/lib/thumb/armv7-m\libc.a(lib_a-memset.o)
                              Mcu.o (memset)
d:/research/pwc/arccore/com.arccore.a4.arm.bundle-win32.win32.x86_64/msys/opt/arm-none-eabi/bin/../lib/gcc/arm-none-eabi/4.8.2/../../../../arm-none-eabi/lib/thumb/armv7-m\libc.a(lib_a-mlock.o)
                              d:/research/pwc/arccore/com.arccore.a4.arm.bundle-win32.win32.x86_64/msys/opt/arm-none-eabi/bin/../lib/gcc/arm-none-eabi/4.8.2/../../../../arm-none-eabi/lib/thumb/armv7-m\libc.a(lib_a-mallocr.o) (__malloc_lock)
d:/research/pwc/arccore/com.arccore.a4.arm.bundle-win32.win32.x86_64/msys/opt/arm-none-eabi/bin/../lib/gcc/arm-none-eabi/4.8.2/../../../../arm-none-eabi/lib/thumb/armv7-m\libc.a(lib_a-openr.o)
                              d:/research/pwc/arccore/com.arccore.a4.arm.bundle-win32.win32.x86_64/msys/opt/arm-none-eabi/bin/../lib/gcc/arm-none-eabi/4.8.2/../../../../arm-none-eabi/lib/thumb/armv7-m\libc.a(lib_a-fopen.o) (_open_r)
d:/research/pwc/arccore/com.arccore.a4.arm.bundle-win32.win32.x86_64/msys/opt/arm-none-eabi/bin/../lib/gcc/arm-none-eabi/4.8.2/../../../../arm-none-eabi/lib/thumb/armv7-m\libc.a(lib_a-reent.o)
                              clib_port.o (errno)
d:/research/pwc/arccore/com.arccore.a4.arm.bundle-win32.win32.x86_64/msys/opt/arm-none-eabi/bin/../lib/gcc/arm-none-eabi/4.8.2/../../../../arm-none-eabi/lib/thumb/armv7-m\libc.a(lib_a-refill.o)
                              d:/research/pwc/arccore/com.arccore.a4.arm.bundle-win32.win32.x86_64/msys/opt/arm-none-eabi/bin/../lib/gcc/arm-none-eabi/4.8.2/../../../../arm-none-eabi/lib/thumb/armv7-m\libc.a(lib_a-fseek.o) (__srefill_r)
d:/research/pwc/arccore/com.arccore.a4.arm.bundle-win32.win32.x86_64/msys/opt/arm-none-eabi/bin/../lib/gcc/arm-none-eabi/4.8.2/../../../../arm-none-eabi/lib/thumb/armv7-m\libc.a(lib_a-sbrkr.o)
                              d:/research/pwc/arccore/com.arccore.a4.arm.bundle-win32.win32.x86_64/msys/opt/arm-none-eabi/bin/../lib/gcc/arm-none-eabi/4.8.2/../../../../arm-none-eabi/lib/thumb/armv7-m\libc.a(lib_a-mallocr.o) (_sbrk_r)
d:/research/pwc/arccore/com.arccore.a4.arm.bundle-win32.win32.x86_64/msys/opt/arm-none-eabi/bin/../lib/gcc/arm-none-eabi/4.8.2/../../../../arm-none-eabi/lib/thumb/armv7-m\libc.a(lib_a-signal.o)
                              d:/research/pwc/arccore/com.arccore.a4.arm.bundle-win32.win32.x86_64/msys/opt/arm-none-eabi/bin/../lib/gcc/arm-none-eabi/4.8.2/../../../../arm-none-eabi/lib/thumb/armv7-m\libc.a(lib_a-abort.o) (raise)
d:/research/pwc/arccore/com.arccore.a4.arm.bundle-win32.win32.x86_64/msys/opt/arm-none-eabi/bin/../lib/gcc/arm-none-eabi/4.8.2/../../../../arm-none-eabi/lib/thumb/armv7-m\libc.a(lib_a-signalr.o)
                              d:/research/pwc/arccore/com.arccore.a4.arm.bundle-win32.win32.x86_64/msys/opt/arm-none-eabi/bin/../lib/gcc/arm-none-eabi/4.8.2/../../../../arm-none-eabi/lib/thumb/armv7-m\libc.a(lib_a-signal.o) (_kill_r)
d:/research/pwc/arccore/com.arccore.a4.arm.bundle-win32.win32.x86_64/msys/opt/arm-none-eabi/bin/../lib/gcc/arm-none-eabi/4.8.2/../../../../arm-none-eabi/lib/thumb/armv7-m\libc.a(lib_a-stdio.o)
                              d:/research/pwc/arccore/com.arccore.a4.arm.bundle-win32.win32.x86_64/msys/opt/arm-none-eabi/bin/../lib/gcc/arm-none-eabi/4.8.2/../../../../arm-none-eabi/lib/thumb/armv7-m\libc.a(lib_a-fopen.o) (__sread)
d:/research/pwc/arccore/com.arccore.a4.arm.bundle-win32.win32.x86_64/msys/opt/arm-none-eabi/bin/../lib/gcc/arm-none-eabi/4.8.2/../../../../arm-none-eabi/lib/thumb/armv7-m\libc.a(lib_a-strcmp.o)
                              clib_port.o (strcmp)
d:/research/pwc/arccore/com.arccore.a4.arm.bundle-win32.win32.x86_64/msys/opt/arm-none-eabi/bin/../lib/gcc/arm-none-eabi/4.8.2/../../../../arm-none-eabi/lib/thumb/armv7-m\libc.a(lib_a-strcpy.o)
                              os_resource.o (strcpy)
d:/research/pwc/arccore/com.arccore.a4.arm.bundle-win32.win32.x86_64/msys/opt/arm-none-eabi/bin/../lib/gcc/arm-none-eabi/4.8.2/../../../../arm-none-eabi/lib/thumb/armv7-m\libc.a(lib_a-strlen.o)
                              os_task.o (strlen)
d:/research/pwc/arccore/com.arccore.a4.arm.bundle-win32.win32.x86_64/msys/opt/arm-none-eabi/bin/../lib/gcc/arm-none-eabi/4.8.2/../../../../arm-none-eabi/lib/thumb/armv7-m\libc.a(lib_a-strncpy.o)
                              os_task.o (strncpy)
d:/research/pwc/arccore/com.arccore.a4.arm.bundle-win32.win32.x86_64/msys/opt/arm-none-eabi/bin/../lib/gcc/arm-none-eabi/4.8.2/../../../../arm-none-eabi/lib/thumb/armv7-m\libc.a(lib_a-strtoul.o)
                              printf.o (strtoul)
d:/research/pwc/arccore/com.arccore.a4.arm.bundle-win32.win32.x86_64/msys/opt/arm-none-eabi/bin/../lib/gcc/arm-none-eabi/4.8.2/../../../../arm-none-eabi/lib/thumb/armv7-m\libc.a(lib_a-sysread.o)
                              printf.o (read)
d:/research/pwc/arccore/com.arccore.a4.arm.bundle-win32.win32.x86_64/msys/opt/arm-none-eabi/bin/../lib/gcc/arm-none-eabi/4.8.2/../../../../arm-none-eabi/lib/thumb/armv7-m\libc.a(lib_a-syswrite.o)
                              clib_port.o (write)
d:/research/pwc/arccore/com.arccore.a4.arm.bundle-win32.win32.x86_64/msys/opt/arm-none-eabi/bin/../lib/gcc/arm-none-eabi/4.8.2/../../../../arm-none-eabi/lib/thumb/armv7-m\libc.a(lib_a-writer.o)
                              d:/research/pwc/arccore/com.arccore.a4.arm.bundle-win32.win32.x86_64/msys/opt/arm-none-eabi/bin/../lib/gcc/arm-none-eabi/4.8.2/../../../../arm-none-eabi/lib/thumb/armv7-m\libc.a(lib_a-stdio.o) (_write_r)
d:/research/pwc/arccore/com.arccore.a4.arm.bundle-win32.win32.x86_64/msys/opt/arm-none-eabi/bin/../lib/gcc/arm-none-eabi/4.8.2/../../../../arm-none-eabi/lib/thumb/armv7-m\libc.a(lib_a-closer.o)
                              d:/research/pwc/arccore/com.arccore.a4.arm.bundle-win32.win32.x86_64/msys/opt/arm-none-eabi/bin/../lib/gcc/arm-none-eabi/4.8.2/../../../../arm-none-eabi/lib/thumb/armv7-m\libc.a(lib_a-stdio.o) (_close_r)
d:/research/pwc/arccore/com.arccore.a4.arm.bundle-win32.win32.x86_64/msys/opt/arm-none-eabi/bin/../lib/gcc/arm-none-eabi/4.8.2/../../../../arm-none-eabi/lib/thumb/armv7-m\libc.a(lib_a-ctype_.o)
                              d:/research/pwc/arccore/com.arccore.a4.arm.bundle-win32.win32.x86_64/msys/opt/arm-none-eabi/bin/../lib/gcc/arm-none-eabi/4.8.2/../../../../arm-none-eabi/lib/thumb/armv7-m\libc.a(lib_a-strtoul.o) (__ctype_ptr__)
d:/research/pwc/arccore/com.arccore.a4.arm.bundle-win32.win32.x86_64/msys/opt/arm-none-eabi/bin/../lib/gcc/arm-none-eabi/4.8.2/../../../../arm-none-eabi/lib/thumb/armv7-m\libc.a(lib_a-fflush.o)
                              d:/research/pwc/arccore/com.arccore.a4.arm.bundle-win32.win32.x86_64/msys/opt/arm-none-eabi/bin/../lib/gcc/arm-none-eabi/4.8.2/../../../../arm-none-eabi/lib/thumb/armv7-m\libc.a(lib_a-refill.o) (__sflush_r)
d:/research/pwc/arccore/com.arccore.a4.arm.bundle-win32.win32.x86_64/msys/opt/arm-none-eabi/bin/../lib/gcc/arm-none-eabi/4.8.2/../../../../arm-none-eabi/lib/thumb/armv7-m\libc.a(lib_a-findfp.o)
                              d:/research/pwc/arccore/com.arccore.a4.arm.bundle-win32.win32.x86_64/msys/opt/arm-none-eabi/bin/../lib/gcc/arm-none-eabi/4.8.2/../../../../arm-none-eabi/lib/thumb/armv7-m\libc.a(lib_a-fopen.o) (__sfp)
d:/research/pwc/arccore/com.arccore.a4.arm.bundle-win32.win32.x86_64/msys/opt/arm-none-eabi/bin/../lib/gcc/arm-none-eabi/4.8.2/../../../../arm-none-eabi/lib/thumb/armv7-m\libc.a(lib_a-flags.o)
                              d:/research/pwc/arccore/com.arccore.a4.arm.bundle-win32.win32.x86_64/msys/opt/arm-none-eabi/bin/../lib/gcc/arm-none-eabi/4.8.2/../../../../arm-none-eabi/lib/thumb/armv7-m\libc.a(lib_a-fopen.o) (__sflags)
d:/research/pwc/arccore/com.arccore.a4.arm.bundle-win32.win32.x86_64/msys/opt/arm-none-eabi/bin/../lib/gcc/arm-none-eabi/4.8.2/../../../../arm-none-eabi/lib/thumb/armv7-m\libc.a(lib_a-freer.o)
                              d:/research/pwc/arccore/com.arccore.a4.arm.bundle-win32.win32.x86_64/msys/opt/arm-none-eabi/bin/../lib/gcc/arm-none-eabi/4.8.2/../../../../arm-none-eabi/lib/thumb/armv7-m\libc.a(lib_a-fseek.o) (_free_r)
d:/research/pwc/arccore/com.arccore.a4.arm.bundle-win32.win32.x86_64/msys/opt/arm-none-eabi/bin/../lib/gcc/arm-none-eabi/4.8.2/../../../../arm-none-eabi/lib/thumb/armv7-m\libc.a(lib_a-fwalk.o)
                              d:/research/pwc/arccore/com.arccore.a4.arm.bundle-win32.win32.x86_64/msys/opt/arm-none-eabi/bin/../lib/gcc/arm-none-eabi/4.8.2/../../../../arm-none-eabi/lib/thumb/armv7-m\libc.a(lib_a-refill.o) (_fwalk)
d:/research/pwc/arccore/com.arccore.a4.arm.bundle-win32.win32.x86_64/msys/opt/arm-none-eabi/bin/../lib/gcc/arm-none-eabi/4.8.2/../../../../arm-none-eabi/lib/thumb/armv7-m\libc.a(lib_a-isattyr.o)
                              d:/research/pwc/arccore/com.arccore.a4.arm.bundle-win32.win32.x86_64/msys/opt/arm-none-eabi/bin/../lib/gcc/arm-none-eabi/4.8.2/../../../../arm-none-eabi/lib/thumb/armv7-m\libc.a(lib_a-makebuf.o) (_isatty_r)
d:/research/pwc/arccore/com.arccore.a4.arm.bundle-win32.win32.x86_64/msys/opt/arm-none-eabi/bin/../lib/gcc/arm-none-eabi/4.8.2/../../../../arm-none-eabi/lib/thumb/armv7-m\libc.a(lib_a-lseekr.o)
                              d:/research/pwc/arccore/com.arccore.a4.arm.bundle-win32.win32.x86_64/msys/opt/arm-none-eabi/bin/../lib/gcc/arm-none-eabi/4.8.2/../../../../arm-none-eabi/lib/thumb/armv7-m\libc.a(lib_a-stdio.o) (_lseek_r)
d:/research/pwc/arccore/com.arccore.a4.arm.bundle-win32.win32.x86_64/msys/opt/arm-none-eabi/bin/../lib/gcc/arm-none-eabi/4.8.2/../../../../arm-none-eabi/lib/thumb/armv7-m\libc.a(lib_a-readr.o)
                              d:/research/pwc/arccore/com.arccore.a4.arm.bundle-win32.win32.x86_64/msys/opt/arm-none-eabi/bin/../lib/gcc/arm-none-eabi/4.8.2/../../../../arm-none-eabi/lib/thumb/armv7-m\libc.a(lib_a-stdio.o) (_read_r)
d:/research/pwc/arccore/com.arccore.a4.arm.bundle-win32.win32.x86_64/msys/opt/arm-none-eabi/bin/../lib/gcc/arm-none-eabi/4.8.2/../../../../arm-none-eabi/lib/thumb/armv7-m\libc.a(lib_a-fclose.o)
                              d:/research/pwc/arccore/com.arccore.a4.arm.bundle-win32.win32.x86_64/msys/opt/arm-none-eabi/bin/../lib/gcc/arm-none-eabi/4.8.2/../../../../arm-none-eabi/lib/thumb/armv7-m\libc.a(lib_a-findfp.o) (fclose)

Allocating common symbols
Common symbol       size              file

sEEDMA_InitStructure
                    0x2c              stm3210c_eval.o
os_error            0x10              os_init.o
ImplDE_WinArbitrator
                    0x3               Rte_WinArbitratorType.o
Os_TaskVarList      0x220             os_task.o
ImplDE_EndStopDtc   0x1               Rte_EndStopDtcType.o
errno               0x4               d:/research/pwc/arccore/com.arccore.a4.arm.bundle-win32.win32.x86_64/msys/opt/arm-none-eabi/bin/../lib/gcc/arm-none-eabi/4.8.2/../../../../arm-none-eabi/lib/thumb/armv7-m\libc.a(lib_a-reent.o)
Rte_Buffer_MotorDriver_cmd_command
                    0x1               Rte_Internal.o
Rte_Buffer_WinController_endStop_isPresent
                    0x1               Rte_Internal.o
PduRConfig          0x4               PduR.o
Rte_Buffer_WinArbitrator_req_d_request
                    0x1               Rte_Internal.o
stack_CriticalTask  0x800             Os_Cfg.o
Rte_Buffer_WinController_req_request
                    0x1               Rte_Internal.o
resScheduler        0x30              os_resource.o
ImplDE_Switch       0x1               Rte_SwitchType.o
Os_AppVar           0x2               os_application.o
Os_IsrVarList       0xc8              os_isr.o
ImplDE_MotorDriver  0x1               Rte_MotorDriverType.o
Os_IntSuspendAllCnt
                    0x1               os_init.o
EcuM_World          0x34              EcuM.o
Os_IntDisableAllCnt
                    0x1               os_init.o
ComConfig           0x4               Com.o
stack_OsTask_Main   0x800             Os_Cfg.o
ImplDE_WinController
                    0x4               Rte_WinControllerType.o
stack_StepTask      0x800             Os_Cfg.o
Rte_Buffer_WinController_obstacle_isPresent
                    0x1               Rte_Internal.o
Os_Sys              0x58              os_init.o
TS_State            0x8               stm3210c_eval_ioe.o
stack_OsIdle        0x200             Os_Cfg.o
_heap               0x3e80            clib_port.o
Os_IntSuspendOsCnt  0x1               os_init.o
Com_BufferPduState  0x0               Com_Com.o
ImplDE_ObstacleDtc  0x1               Rte_ObstacleDtcType.o
Os_IsrStack         0x800             os_isr.o

Memory Configuration

Name             Origin             Length             Attributes
flash            0x08000000         0x00040000         r
ram              0x20000000         0x00010000         rw
*default*        0x00000000         0xffffffff

Linker script and memory map


.isr_vector     0x08000000      0x18c
                0x08000000                . = ALIGN (0x4)
 *(.isr_vector)
 .isr_vector    0x08000000      0x18c startup_stm32f10x.o
                0x0800018c                . = ALIGN (0x4)

.text           0x0800018c    0x161ac
                0x0800018c                . = ALIGN (0x4)
 *(.text .text.*)
 .text          0x0800018c        0x0 Rte.o
 .text.CriticalTask
                0x0800018c       0x58 Rte.o
                0x0800018c                CriticalTask
 .text.StepTask
                0x080001e4       0x58 Rte.o
                0x080001e4                StepTask
 .text          0x0800023c        0x0 Rte_Main.o
 .text.Rte_Start
                0x0800023c       0x20 Rte_Main.o
                0x0800023c                Rte_Start
 .text.Rte_Stop
                0x0800025c       0x1c Rte_Main.o
                0x0800025c                Rte_Stop
 .text          0x08000278        0x0 Rte_Calprms.o
 .text.Rte_Init_Calprms
                0x08000278        0xc Rte_Calprms.o
                0x08000278                Rte_Init_Calprms
 .text          0x08000284        0x0 Rte_Internal.o
 .text.__enable_irq
                0x08000284       0x10 Rte_Internal.o
 .text.__disable_irq
                0x08000294       0x10 Rte_Internal.o
 .text.SuspendAllInterrupts
                0x080002a4       0x24 Rte_Internal.o
 .text.ResumeAllInterrupts
                0x080002c8       0x40 Rte_Internal.o
 .text.Rte_Write_EndStopDtcType_EndStopDtc_endStop_isPresent
                0x08000308       0x2c Rte_Internal.o
                0x08000308                Rte_Write_EndStopDtcType_EndStopDtc_endStop_isPresent
 .text.Rte_Call_EndStopDtcType_EndStopDtc_isEndStop_Read
                0x08000334       0x1c Rte_Internal.o
                0x08000334                Rte_Call_EndStopDtcType_EndStopDtc_isEndStop_Read
 .text.Rte_Call_IoHwAb_ioHwAb_Digital_DigitalSignal_EndStop_Read
                0x08000350       0x20 Rte_Internal.o
                0x08000350                Rte_Call_IoHwAb_ioHwAb_Digital_DigitalSignal_EndStop_Read
 .text.Rte_Call_IoHwAb_ioHwAb_Digital_DigitalSignal_LED1_Write
                0x08000370       0x20 Rte_Internal.o
                0x08000370                Rte_Call_IoHwAb_ioHwAb_Digital_DigitalSignal_LED1_Write
 .text.Rte_Call_IoHwAb_ioHwAb_Digital_DigitalSignal_LED2_Write
                0x08000390       0x20 Rte_Internal.o
                0x08000390                Rte_Call_IoHwAb_ioHwAb_Digital_DigitalSignal_LED2_Write
 .text.Rte_Call_IoHwAb_ioHwAb_Digital_DigitalSignal_Obstacle_Read
                0x080003b0       0x20 Rte_Internal.o
                0x080003b0                Rte_Call_IoHwAb_ioHwAb_Digital_DigitalSignal_Obstacle_Read
 .text.Rte_Call_MotorDriverType_MotorDriver_RunMotor_1_Write
                0x080003d0       0x1c Rte_Internal.o
                0x080003d0                Rte_Call_MotorDriverType_MotorDriver_RunMotor_1_Write
 .text.Rte_Call_MotorDriverType_MotorDriver_RunMotor_2_Write
                0x080003ec       0x1c Rte_Internal.o
                0x080003ec                Rte_Call_MotorDriverType_MotorDriver_RunMotor_2_Write
 .text.Rte_Read_MotorDriverType_MotorDriver_cmd_command
                0x08000408       0x2c Rte_Internal.o
                0x08000408                Rte_Read_MotorDriverType_MotorDriver_cmd_command
 .text.Rte_Call_ObstacleDtcType_ObstacleDtc_isObstacle_Read
                0x08000434       0x1c Rte_Internal.o
                0x08000434                Rte_Call_ObstacleDtcType_ObstacleDtc_isObstacle_Read
 .text.Rte_Write_ObstacleDtcType_ObstacleDtc_obstacle_isPresent
                0x08000450       0x2c Rte_Internal.o
                0x08000450                Rte_Write_ObstacleDtcType_ObstacleDtc_obstacle_isPresent
 .text.Rte_Write_SwitchType_Switch_req_request
                0x0800047c       0x2c Rte_Internal.o
                0x0800047c                Rte_Write_SwitchType_Switch_req_request
 .text.Rte_Write_WinArbitratorType_WinArbitrator_req_a_request
                0x080004a8       0x2c Rte_Internal.o
                0x080004a8                Rte_Write_WinArbitratorType_WinArbitrator_req_a_request
 .text.Rte_Read_WinArbitratorType_WinArbitrator_req_d_request
                0x080004d4       0x2c Rte_Internal.o
                0x080004d4                Rte_Read_WinArbitratorType_WinArbitrator_req_d_request
 .text.Rte_Read_WinArbitratorType_WinArbitrator_req_p_request
                0x08000500       0x1c Rte_Internal.o
                0x08000500                Rte_Read_WinArbitratorType_WinArbitrator_req_p_request
 .text.Rte_Write_WinControllerType_WinController_cmd_command
                0x0800051c       0x2c Rte_Internal.o
                0x0800051c                Rte_Write_WinControllerType_WinController_cmd_command
 .text.Rte_Read_WinControllerType_WinController_endStop_isPresent
                0x08000548       0x2c Rte_Internal.o
                0x08000548                Rte_Read_WinControllerType_WinController_endStop_isPresent
 .text.Rte_Read_WinControllerType_WinController_obstacle_isPresent
                0x08000574       0x2c Rte_Internal.o
                0x08000574                Rte_Read_WinControllerType_WinController_obstacle_isPresent
 .text.Rte_Read_WinControllerType_WinController_req_request
                0x080005a0       0x2c Rte_Internal.o
                0x080005a0                Rte_Read_WinControllerType_WinController_req_request
 .text.Rte_Internal_Init_Buffers
                0x080005cc        0xc Rte_Internal.o
                0x080005cc                Rte_Internal_Init_Buffers
 .text          0x080005d8        0x0 Rte_Callbacks.o
 .text          0x080005d8        0x0 Rte_Fifo.o
 .text.__enable_irq
                0x080005d8       0x10 Rte_Fifo.o
 .text.__disable_irq
                0x080005e8       0x10 Rte_Fifo.o
 .text.SuspendAllInterrupts
                0x080005f8       0x24 Rte_Fifo.o
 .text.ResumeAllInterrupts
                0x0800061c       0x40 Rte_Fifo.o
 .text.Rte_Fifo_Init
                0x0800065c       0x54 Rte_Fifo.o
                0x0800065c                Rte_Fifo_Init
 .text.Rte_Fifo_Push
                0x080006b0       0x80 Rte_Fifo.o
                0x080006b0                Rte_Fifo_Push
 .text.Rte_Fifo_Pop
                0x08000730       0x8c Rte_Fifo.o
                0x08000730                Rte_Fifo_Pop
 .text          0x080007bc        0x0 Rte_EndStopDtcType.o
 .text.Rte_EndStopDtc_EndStopDtcRunnable
                0x080007bc       0x1c Rte_EndStopDtcType.o
                0x080007bc                Rte_EndStopDtc_EndStopDtcRunnable
 .text          0x080007d8        0x0 Rte_IoHwAb.o
 .text.Rte_ioHwAb_DigitalWrite
                0x080007d8       0x28 Rte_IoHwAb.o
                0x080007d8                Rte_ioHwAb_DigitalWrite
 .text.Rte_ioHwAb_DigitalRead
                0x08000800       0x28 Rte_IoHwAb.o
                0x08000800                Rte_ioHwAb_DigitalRead
 .text          0x08000828        0x0 Rte_MotorDriverType.o
 .text.Rte_MotorDriver_MotorDriverRunnable
                0x08000828       0x18 Rte_MotorDriverType.o
                0x08000828                Rte_MotorDriver_MotorDriverRunnable
 .text          0x08000840        0x0 Rte_ObstacleDtcType.o
 .text.Rte_ObstacleDtc_ObstacleDtcRunnable
                0x08000840       0x1c Rte_ObstacleDtcType.o
                0x08000840                Rte_ObstacleDtc_ObstacleDtcRunnable
 .text          0x0800085c        0x0 Rte_SwitchType.o
 .text.Rte_Switch_SwitchRunnable
                0x0800085c       0x1c Rte_SwitchType.o
                0x0800085c                Rte_Switch_SwitchRunnable
 .text          0x08000878        0x0 Rte_WinArbitratorType.o
 .text.Rte_WinArbitrator_WinArbitratorRunnable
                0x08000878       0x30 Rte_WinArbitratorType.o
                0x08000878                Rte_WinArbitrator_WinArbitratorRunnable
 .text          0x080008a8        0x0 Rte_WinControllerType.o
 .text.Rte_WinController_WinControllerStepRunnable
                0x080008a8       0x38 Rte_WinControllerType.o
                0x080008a8                Rte_WinController_WinControllerStepRunnable
 .text          0x080008e0        0x0 EndStopDtc.o
 .text.Rte_IWrite_EndStopDtcRunnable_endStop_isPresent
                0x080008e0       0x24 EndStopDtc.o
 .text.Rte_Call_isEndStop_Read
                0x08000904       0x1c EndStopDtc.o
 .text.EndStopDtcRunnable
                0x08000920       0x2c EndStopDtc.o
                0x08000920                EndStopDtcRunnable
 .text          0x0800094c        0x0 IoHwAb.o
 .text.IoHwAb_Init
                0x0800094c       0x14 IoHwAb.o
                0x0800094c                IoHwAb_Init
 .text.IoHwAb_MainFunction
                0x08000960       0x14 IoHwAb.o
                0x08000960                IoHwAb_MainFunction
 .text          0x08000974        0x0 MotorDriver.o
 .text.Rte_IRead_MotorDriverRunnable_cmd_command
                0x08000974       0x1c MotorDriver.o
 .text.Rte_Call_RunMotor_1_Write
                0x08000990       0x1c MotorDriver.o
 .text.Rte_Call_RunMotor_2_Write
                0x080009ac       0x1c MotorDriver.o
 .text.MotorDriverRunnable
                0x080009c8       0x4c MotorDriver.o
                0x080009c8                MotorDriverRunnable
 .text          0x08000a14        0x0 ObstacleDtc.o
 .text.Rte_IWrite_ObstacleDtcRunnable_obstacle_isPresent
                0x08000a14       0x24 ObstacleDtc.o
 .text.Rte_Call_isObstacle_Read
                0x08000a38       0x1c ObstacleDtc.o
 .text.ObstacleDtcRunnable
                0x08000a54       0x2c ObstacleDtc.o
                0x08000a54                ObstacleDtcRunnable
 .text          0x08000a80        0x0 Switch.o
 .text.Rte_IWrite_SwitchRunnable_req_request
                0x08000a80       0x24 Switch.o
 .text.SwitchRunnable
                0x08000aa4       0x78 Switch.o
                0x08000aa4                SwitchRunnable
 .text          0x08000b1c        0x0 Tasks.o
 .text.OSErrorGetServiceId
                0x08000b1c       0x18 Tasks.o
 .text.OsTask_Main
                0x08000b34       0x1c Tasks.o
                0x08000b34                OsTask_Main
 .text.OsIdle   0x08000b50        0x8 Tasks.o
                0x08000b50                OsIdle
 .text.ErrorHook
                0x08000b58      0x114 Tasks.o
                0x08000b58                ErrorHook
 .text.PostTaskHook
                0x08000c6c       0x14 Tasks.o
                0x08000c6c                PostTaskHook
 .text.PreTaskHook
                0x08000c80       0x14 Tasks.o
                0x08000c80                PreTaskHook
 .text.ShutdownHook
                0x08000c94        0xc Tasks.o
                0x08000c94                ShutdownHook
 .text.StartupHook
                0x08000ca0        0xc Tasks.o
                0x08000ca0                StartupHook
 .text          0x08000cac        0x0 WinArbitrator.o
 .text.Rte_IRead_WinArbitratorRunnable_req_d_request
                0x08000cac       0x1c WinArbitrator.o
 .text.Rte_IWrite_WinArbitratorRunnable_req_a_request
                0x08000cc8       0x24 WinArbitrator.o
 .text.WinArbitratorRunnable
                0x08000cec       0x3c WinArbitrator.o
                0x08000cec                WinArbitratorRunnable
 .text.PWC_WinArbitrator
                0x08000d28       0xd0 WinArbitrator.o
                0x08000d28                PWC_WinArbitrator
 .text          0x08000df8        0x0 WinController.o
 .text.Rte_IRead_WinControllerStepRunnable_req_request
                0x08000df8       0x1c WinController.o
 .text.Rte_IRead_WinControllerStepRunnable_obstacle_isPresent
                0x08000e14       0x1c WinController.o
 .text.Rte_IRead_WinControllerStepRunnable_endStop_isPresent
                0x08000e30       0x1c WinController.o
 .text.Rte_IWrite_WinControllerStepRunnable_cmd_command
                0x08000e4c       0x24 WinController.o
 .text.WinControllerRunnable
                0x08000e70       0x44 WinController.o
                0x08000e70                WinControllerRunnable
 .text.power_window_controller
                0x08000eb4       0x60 WinController.o
                0x08000eb4                power_window_controller
 .text.power_window_controll_winStates
                0x08000f14      0x4c4 WinController.o
 .text          0x080013d8        0x0 stm3210c_eval.o
 .text.STM_EVAL_LEDInit
                0x080013d8       0x58 stm3210c_eval.o
                0x080013d8                STM_EVAL_LEDInit
 .text.STM_EVAL_LEDOn
                0x08001430       0x34 stm3210c_eval.o
                0x08001430                STM_EVAL_LEDOn
 .text.STM_EVAL_LEDOff
                0x08001464       0x34 stm3210c_eval.o
                0x08001464                STM_EVAL_LEDOff
 .text.STM_EVAL_LEDToggle
                0x08001498       0x44 stm3210c_eval.o
                0x08001498                STM_EVAL_LEDToggle
 .text.STM_EVAL_PBInit
                0x080014dc       0xe4 stm3210c_eval.o
                0x080014dc                STM_EVAL_PBInit
 .text.STM_EVAL_PBGetState
                0x080015c0       0x38 stm3210c_eval.o
                0x080015c0                STM_EVAL_PBGetState
 .text.STM_EVAL_COMInit
                0x080015f8       0xb4 stm3210c_eval.o
                0x080015f8                STM_EVAL_COMInit
 .text.SD_LowLevel_DeInit
                0x080016ac       0xac stm3210c_eval.o
                0x080016ac                SD_LowLevel_DeInit
 .text.SD_LowLevel_Init
                0x08001758      0x104 stm3210c_eval.o
                0x08001758                SD_LowLevel_Init
 .text.sEE_LowLevel_DeInit
                0x0800185c       0xb4 stm3210c_eval.o
                0x0800185c                sEE_LowLevel_DeInit
 .text.sEE_LowLevel_Init
                0x08001910      0x164 stm3210c_eval.o
                0x08001910                sEE_LowLevel_Init
 .text.sEE_LowLevel_DMAConfig
                0x08001a74       0x88 stm3210c_eval.o
                0x08001a74                sEE_LowLevel_DMAConfig
 .text          0x08001afc        0x0 stm3210c_eval_ioe.o
 .text.IOE_Config
                0x08001afc       0xe0 stm3210c_eval_ioe.o
                0x08001afc                IOE_Config
 .text.IOE_ITConfig
                0x08001bdc       0xc4 stm3210c_eval_ioe.o
                0x08001bdc                IOE_ITConfig
 .text.IOE_WriteIOPin
                0x08001ca0       0x64 stm3210c_eval_ioe.o
                0x08001ca0                IOE_WriteIOPin
 .text.IOE_ReadIOPin
                0x08001d04       0x60 stm3210c_eval_ioe.o
                0x08001d04                IOE_ReadIOPin
 .text.IOE_JoyStickGetState
                0x08001d64       0x74 stm3210c_eval_ioe.o
                0x08001d64                IOE_JoyStickGetState
 .text.IOE_TS_GetState
                0x08001dd8      0x138 stm3210c_eval_ioe.o
                0x08001dd8                IOE_TS_GetState
 .text.IOE_TempSens_GetData
                0x08001f10       0xb0 stm3210c_eval_ioe.o
                0x08001f10                IOE_TempSens_GetData
 .text.IOE_GetGITStatus
                0x08001fc0       0x3c stm3210c_eval_ioe.o
                0x08001fc0                IOE_GetGITStatus
 .text.IOE_ClearGITPending
                0x08001ffc       0x28 stm3210c_eval_ioe.o
                0x08001ffc                IOE_ClearGITPending
 .text.IOE_GetIOITStatus
                0x08002024       0x3c stm3210c_eval_ioe.o
                0x08002024                IOE_GetIOITStatus
 .text.IOE_ClearIOITPending
                0x08002060       0x4c stm3210c_eval_ioe.o
                0x08002060                IOE_ClearIOITPending
 .text.IOE_IsOperational
                0x080020ac       0x40 stm3210c_eval_ioe.o
                0x080020ac                IOE_IsOperational
 .text.IOE_Reset
                0x080020ec       0x34 stm3210c_eval_ioe.o
                0x080020ec                IOE_Reset
 .text.IOE_ReadID
                0x08002120       0x40 stm3210c_eval_ioe.o
                0x08002120                IOE_ReadID
 .text.IOE_FnctCmd
                0x08002160       0x5c stm3210c_eval_ioe.o
                0x08002160                IOE_FnctCmd
 .text.IOE_IOPinConfig
                0x080021bc       0x5c stm3210c_eval_ioe.o
                0x080021bc                IOE_IOPinConfig
 .text.IOE_GITCmd
                0x08002218       0x4c stm3210c_eval_ioe.o
                0x08002218                IOE_GITCmd
 .text.IOE_GITConfig
                0x08002264       0x5c stm3210c_eval_ioe.o
                0x08002264                IOE_GITConfig
 .text.IOE_IOITConfig
                0x080022c0       0x5c stm3210c_eval_ioe.o
                0x080022c0                IOE_IOITConfig
 .text.IOE_TS_Config
                0x0800231c      0x128 stm3210c_eval_ioe.o
                0x0800231c                IOE_TS_Config
 .text.IOE_TempSens_Config
                0x08002444       0x50 stm3210c_eval_ioe.o
                0x08002444                IOE_TempSens_Config
 .text.IOE_IOAFConfig
                0x08002494       0x5c stm3210c_eval_ioe.o
                0x08002494                IOE_IOAFConfig
 .text.IOE_IOEdgeConfig
                0x080024f0       0x9c stm3210c_eval_ioe.o
                0x080024f0                IOE_IOEdgeConfig
 .text.IOE_ITOutConfig
                0x0800258c       0x78 stm3210c_eval_ioe.o
                0x0800258c                IOE_ITOutConfig
 .text.I2C_WriteDeviceRegister
                0x08002604      0x208 stm3210c_eval_ioe.o
                0x08002604                I2C_WriteDeviceRegister
 .text.I2C_ReadDeviceRegister
                0x0800280c      0x294 stm3210c_eval_ioe.o
                0x0800280c                I2C_ReadDeviceRegister
 .text.I2C_ReadDataBuffer
                0x08002aa0      0x2a8 stm3210c_eval_ioe.o
                0x08002aa0                I2C_ReadDataBuffer
 .text.IOE_TS_Read_X
                0x08002d48       0x54 stm3210c_eval_ioe.o
 .text.IOE_TS_Read_Y
                0x08002d9c       0x58 stm3210c_eval_ioe.o
 .text.IOE_TS_Read_Z
                0x08002df4       0x28 stm3210c_eval_ioe.o
 .text.IOE_GPIO_Config
                0x08002e1c       0x84 stm3210c_eval_ioe.o
 .text.IOE_I2C_Config
                0x08002ea0       0x40 stm3210c_eval_ioe.o
 .text.IOE_DMA_Config
                0x08002ee0       0x98 stm3210c_eval_ioe.o
 .text.IOE_EXTI_Config
                0x08002f78       0x6c stm3210c_eval_ioe.o
 .text.delay    0x08002fe4       0x34 stm3210c_eval_ioe.o
 .text          0x08003018        0x0 system_stm32f10x.o
 .text.SystemInit
                0x08003018       0xcc system_stm32f10x.o
                0x08003018                SystemInit
 .text.SystemCoreClockUpdate
                0x080030e4      0x1b4 system_stm32f10x.o
                0x080030e4                SystemCoreClockUpdate
 .text.SetSysClock
                0x08003298        0xc system_stm32f10x.o
 .text.SetSysClockTo72
                0x080032a4      0x208 system_stm32f10x.o
 .text          0x080034ac        0x0 misc.o
 .text.NVIC_PriorityGroupConfig
                0x080034ac       0x28 misc.o
                0x080034ac                NVIC_PriorityGroupConfig
 .text.NVIC_Init
                0x080034d4       0xd0 misc.o
                0x080034d4                NVIC_Init
 .text.NVIC_SetVectorTable
                0x080035a4       0x2c misc.o
                0x080035a4                NVIC_SetVectorTable
 .text.NVIC_SystemLPConfig
                0x080035d0       0x54 misc.o
                0x080035d0                NVIC_SystemLPConfig
 .text.SysTick_CLKSourceConfig
                0x08003624       0x4c misc.o
                0x08003624                SysTick_CLKSourceConfig
 .text          0x08003670        0x0 stm32f10x_exti.o
 .text.EXTI_DeInit
                0x08003670       0x50 stm32f10x_exti.o
                0x08003670                EXTI_DeInit
 .text.EXTI_Init
                0x080036c0      0x12c stm32f10x_exti.o
                0x080036c0                EXTI_Init
 .text.EXTI_StructInit
                0x080037ec       0x2c stm32f10x_exti.o
                0x080037ec                EXTI_StructInit
 .text.EXTI_GenerateSWInterrupt
                0x08003818       0x2c stm32f10x_exti.o
                0x08003818                EXTI_GenerateSWInterrupt
 .text.EXTI_GetFlagStatus
                0x08003844       0x38 stm32f10x_exti.o
                0x08003844                EXTI_GetFlagStatus
 .text.EXTI_ClearFlag
                0x0800387c       0x20 stm32f10x_exti.o
                0x0800387c                EXTI_ClearFlag
 .text.EXTI_GetITStatus
                0x0800389c       0x50 stm32f10x_exti.o
                0x0800389c                EXTI_GetITStatus
 .text.EXTI_ClearITPendingBit
                0x080038ec       0x20 stm32f10x_exti.o
                0x080038ec                EXTI_ClearITPendingBit
 .text          0x0800390c        0x0 stm32f10x_usart.o
 .text.USART_DeInit
                0x0800390c       0xc0 stm32f10x_usart.o
                0x0800390c                USART_DeInit
 .text.USART_Init
                0x080039cc      0x184 stm32f10x_usart.o
                0x080039cc                USART_Init
 .text.USART_StructInit
                0x08003b50       0x38 stm32f10x_usart.o
                0x08003b50                USART_StructInit
 .text.USART_ClockInit
                0x08003b88       0x54 stm32f10x_usart.o
                0x08003b88                USART_ClockInit
 .text.USART_ClockStructInit
                0x08003bdc       0x2c stm32f10x_usart.o
                0x08003bdc                USART_ClockStructInit
 .text.USART_Cmd
                0x08003c08       0x40 stm32f10x_usart.o
                0x08003c08                USART_Cmd
 .text.USART_ITConfig
                0x08003c48       0x90 stm32f10x_usart.o
                0x08003c48                USART_ITConfig
 .text.USART_DMACmd
                0x08003cd8       0x48 stm32f10x_usart.o
                0x08003cd8                USART_DMACmd
 .text.USART_SetAddress
                0x08003d20       0x38 stm32f10x_usart.o
                0x08003d20                USART_SetAddress
 .text.USART_WakeUpConfig
                0x08003d58       0x38 stm32f10x_usart.o
                0x08003d58                USART_WakeUpConfig
 .text.USART_ReceiverWakeUpCmd
                0x08003d90       0x40 stm32f10x_usart.o
                0x08003d90                USART_ReceiverWakeUpCmd
 .text.USART_LINBreakDetectLengthConfig
                0x08003dd0       0x38 stm32f10x_usart.o
                0x08003dd0                USART_LINBreakDetectLengthConfig
 .text.USART_LINCmd
                0x08003e08       0x40 stm32f10x_usart.o
                0x08003e08                USART_LINCmd
 .text.USART_SendData
                0x08003e48       0x24 stm32f10x_usart.o
                0x08003e48                USART_SendData
 .text.USART_ReceiveData
                0x08003e6c       0x20 stm32f10x_usart.o
                0x08003e6c                USART_ReceiveData
 .text.USART_SendBreak
                0x08003e8c       0x24 stm32f10x_usart.o
                0x08003e8c                USART_SendBreak
 .text.USART_SetGuardTime
                0x08003eb0       0x3c stm32f10x_usart.o
                0x08003eb0                USART_SetGuardTime
 .text.USART_SetPrescaler
                0x08003eec       0x38 stm32f10x_usart.o
                0x08003eec                USART_SetPrescaler
 .text.USART_SmartCardCmd
                0x08003f24       0x40 stm32f10x_usart.o
                0x08003f24                USART_SmartCardCmd
 .text.USART_SmartCardNACKCmd
                0x08003f64       0x40 stm32f10x_usart.o
                0x08003f64                USART_SmartCardNACKCmd
 .text.USART_HalfDuplexCmd
                0x08003fa4       0x40 stm32f10x_usart.o
                0x08003fa4                USART_HalfDuplexCmd
 .text.USART_OverSampling8Cmd
                0x08003fe4       0x44 stm32f10x_usart.o
                0x08003fe4                USART_OverSampling8Cmd
 .text.USART_OneBitMethodCmd
                0x08004028       0x40 stm32f10x_usart.o
                0x08004028                USART_OneBitMethodCmd
 .text.USART_IrDAConfig
                0x08004068       0x38 stm32f10x_usart.o
                0x08004068                USART_IrDAConfig
 .text.USART_IrDACmd
                0x080040a0       0x40 stm32f10x_usart.o
                0x080040a0                USART_IrDACmd
 .text.USART_GetFlagStatus
                0x080040e0       0x38 stm32f10x_usart.o
                0x080040e0                USART_GetFlagStatus
 .text.USART_ClearFlag
                0x08004118       0x20 stm32f10x_usart.o
                0x08004118                USART_ClearFlag
 .text.USART_GetITStatus
                0x08004138       0xb0 stm32f10x_usart.o
                0x08004138                USART_GetITStatus
 .text.USART_ClearITPendingBit
                0x080041e8       0x38 stm32f10x_usart.o
                0x080041e8                USART_ClearITPendingBit
 .text          0x08004220        0x0 stm32f10x_i2c.o
 .text.I2C_DeInit
                0x08004220       0x48 stm32f10x_i2c.o
                0x08004220                I2C_DeInit
 .text.I2C_Init
                0x08004268      0x18c stm32f10x_i2c.o
                0x08004268                I2C_Init
 .text.I2C_StructInit
                0x080043f4       0x3c stm32f10x_i2c.o
                0x080043f4                I2C_StructInit
 .text.I2C_Cmd  0x08004430       0x40 stm32f10x_i2c.o
                0x08004430                I2C_Cmd
 .text.I2C_DMACmd
                0x08004470       0x40 stm32f10x_i2c.o
                0x08004470                I2C_DMACmd
 .text.I2C_DMALastTransferCmd
                0x080044b0       0x40 stm32f10x_i2c.o
                0x080044b0                I2C_DMALastTransferCmd
 .text.I2C_GenerateSTART
                0x080044f0       0x40 stm32f10x_i2c.o
                0x080044f0                I2C_GenerateSTART
 .text.I2C_GenerateSTOP
                0x08004530       0x40 stm32f10x_i2c.o
                0x08004530                I2C_GenerateSTOP
 .text.I2C_AcknowledgeConfig
                0x08004570       0x40 stm32f10x_i2c.o
                0x08004570                I2C_AcknowledgeConfig
 .text.I2C_OwnAddress2Config
                0x080045b0       0x40 stm32f10x_i2c.o
                0x080045b0                I2C_OwnAddress2Config
 .text.I2C_DualAddressCmd
                0x080045f0       0x40 stm32f10x_i2c.o
                0x080045f0                I2C_DualAddressCmd
 .text.I2C_GeneralCallCmd
                0x08004630       0x40 stm32f10x_i2c.o
                0x08004630                I2C_GeneralCallCmd
 .text.I2C_ITConfig
                0x08004670       0x48 stm32f10x_i2c.o
                0x08004670                I2C_ITConfig
 .text.I2C_SendData
                0x080046b8       0x20 stm32f10x_i2c.o
                0x080046b8                I2C_SendData
 .text.I2C_ReceiveData
                0x080046d8       0x1c stm32f10x_i2c.o
                0x080046d8                I2C_ReceiveData
 .text.I2C_Send7bitAddress
                0x080046f4       0x3c stm32f10x_i2c.o
                0x080046f4                I2C_Send7bitAddress
 .text.I2C_ReadRegister
                0x08004730       0x30 stm32f10x_i2c.o
                0x08004730                I2C_ReadRegister
 .text.I2C_SoftwareResetCmd
                0x08004760       0x44 stm32f10x_i2c.o
                0x08004760                I2C_SoftwareResetCmd
 .text.I2C_SMBusAlertConfig
                0x080047a4       0x40 stm32f10x_i2c.o
                0x080047a4                I2C_SMBusAlertConfig
 .text.I2C_TransmitPEC
                0x080047e4       0x40 stm32f10x_i2c.o
                0x080047e4                I2C_TransmitPEC
 .text.I2C_PECPositionConfig
                0x08004824       0x40 stm32f10x_i2c.o
                0x08004824                I2C_PECPositionConfig
 .text.I2C_CalculatePEC
                0x08004864       0x40 stm32f10x_i2c.o
                0x08004864                I2C_CalculatePEC
 .text.I2C_GetPEC
                0x080048a4       0x20 stm32f10x_i2c.o
                0x080048a4                I2C_GetPEC
 .text.I2C_ARPCmd
                0x080048c4       0x40 stm32f10x_i2c.o
                0x080048c4                I2C_ARPCmd
 .text.I2C_StretchClockCmd
                0x08004904       0x40 stm32f10x_i2c.o
                0x08004904                I2C_StretchClockCmd
 .text.I2C_FastModeDutyCycleConfig
                0x08004944       0x40 stm32f10x_i2c.o
                0x08004944                I2C_FastModeDutyCycleConfig
 .text.I2C_CheckEvent
                0x08004984       0x60 stm32f10x_i2c.o
                0x08004984                I2C_CheckEvent
 .text.I2C_GetLastEvent
                0x080049e4       0x44 stm32f10x_i2c.o
                0x080049e4                I2C_GetLastEvent
 .text.I2C_GetFlagStatus
                0x08004a28       0x68 stm32f10x_i2c.o
                0x08004a28                I2C_GetFlagStatus
 .text.I2C_ClearFlag
                0x08004a90       0x2c stm32f10x_i2c.o
                0x08004a90                I2C_ClearFlag
 .text.I2C_GetITStatus
                0x08004abc       0x5c stm32f10x_i2c.o
                0x08004abc                I2C_GetITStatus
 .text.I2C_ClearITPendingBit
                0x08004b18       0x2c stm32f10x_i2c.o
                0x08004b18                I2C_ClearITPendingBit
 .text          0x08004b44        0x0 stm32f10x_spi.o
 .text.SPI_I2S_DeInit
                0x08004b44       0x78 stm32f10x_spi.o
                0x08004b44                SPI_I2S_DeInit
 .text.SPI_Init
                0x08004bbc       0x88 stm32f10x_spi.o
                0x08004bbc                SPI_Init
 .text.I2S_Init
                0x08004c44      0x1d8 stm32f10x_spi.o
                0x08004c44                I2S_Init
 .text.SPI_StructInit
                0x08004e1c       0x48 stm32f10x_spi.o
                0x08004e1c                SPI_StructInit
 .text.I2S_StructInit
                0x08004e64       0x38 stm32f10x_spi.o
                0x08004e64                I2S_StructInit
 .text.SPI_Cmd  0x08004e9c       0x40 stm32f10x_spi.o
                0x08004e9c                SPI_Cmd
 .text.I2S_Cmd  0x08004edc       0x40 stm32f10x_spi.o
                0x08004edc                I2S_Cmd
 .text.SPI_I2S_ITConfig
                0x08004f1c       0x60 stm32f10x_spi.o
                0x08004f1c                SPI_I2S_ITConfig
 .text.SPI_I2S_DMACmd
                0x08004f7c       0x48 stm32f10x_spi.o
                0x08004f7c                SPI_I2S_DMACmd
 .text.SPI_I2S_SendData
                0x08004fc4       0x1c stm32f10x_spi.o
                0x08004fc4                SPI_I2S_SendData
 .text.SPI_I2S_ReceiveData
                0x08004fe0       0x1c stm32f10x_spi.o
                0x08004fe0                SPI_I2S_ReceiveData
 .text.SPI_NSSInternalSoftwareConfig
                0x08004ffc       0x44 stm32f10x_spi.o
                0x08004ffc                SPI_NSSInternalSoftwareConfig
 .text.SPI_SSOutputCmd
                0x08005040       0x40 stm32f10x_spi.o
                0x08005040                SPI_SSOutputCmd
 .text.SPI_DataSizeConfig
                0x08005080       0x38 stm32f10x_spi.o
                0x08005080                SPI_DataSizeConfig
 .text.SPI_TransmitCRC
                0x080050b8       0x24 stm32f10x_spi.o
                0x080050b8                SPI_TransmitCRC
 .text.SPI_CalculateCRC
                0x080050dc       0x40 stm32f10x_spi.o
                0x080050dc                SPI_CalculateCRC
 .text.SPI_GetCRC
                0x0800511c       0x34 stm32f10x_spi.o
                0x0800511c                SPI_GetCRC
 .text.SPI_GetCRCPolynomial
                0x08005150       0x1c stm32f10x_spi.o
                0x08005150                SPI_GetCRCPolynomial
 .text.SPI_BiDirectionalLineConfig
                0x0800516c       0x40 stm32f10x_spi.o
                0x0800516c                SPI_BiDirectionalLineConfig
 .text.SPI_I2S_GetFlagStatus
                0x080051ac       0x38 stm32f10x_spi.o
                0x080051ac                SPI_I2S_GetFlagStatus
 .text.SPI_I2S_ClearFlag
                0x080051e4       0x20 stm32f10x_spi.o
                0x080051e4                SPI_I2S_ClearFlag
 .text.SPI_I2S_GetITStatus
                0x08005204       0x78 stm32f10x_spi.o
                0x08005204                SPI_I2S_GetITStatus
 .text.SPI_I2S_ClearITPendingBit
                0x0800527c       0x34 stm32f10x_spi.o
                0x0800527c                SPI_I2S_ClearITPendingBit
 .text          0x080052b0        0x0 stm32f10x_dma.o
 .text.DMA_DeInit
                0x080052b0      0x1ec stm32f10x_dma.o
                0x080052b0                DMA_DeInit
 .text.DMA_Init
                0x0800549c       0x7c stm32f10x_dma.o
                0x0800549c                DMA_Init
 .text.DMA_StructInit
                0x08005518       0x54 stm32f10x_dma.o
                0x08005518                DMA_StructInit
 .text.DMA_Cmd  0x0800556c       0x38 stm32f10x_dma.o
                0x0800556c                DMA_Cmd
 .text.DMA_ITConfig
                0x080055a4       0x3c stm32f10x_dma.o
                0x080055a4                DMA_ITConfig
 .text.DMA_SetCurrDataCounter
                0x080055e0       0x1c stm32f10x_dma.o
                0x080055e0                DMA_SetCurrDataCounter
 .text.DMA_GetCurrDataCounter
                0x080055fc       0x1c stm32f10x_dma.o
                0x080055fc                DMA_GetCurrDataCounter
 .text.DMA_GetFlagStatus
                0x08005618       0x54 stm32f10x_dma.o
                0x08005618                DMA_GetFlagStatus
 .text.DMA_ClearFlag
                0x0800566c       0x34 stm32f10x_dma.o
                0x0800566c                DMA_ClearFlag
 .text.DMA_GetITStatus
                0x080056a0       0x54 stm32f10x_dma.o
                0x080056a0                DMA_GetITStatus
 .text.DMA_ClearITPendingBit
                0x080056f4       0x34 stm32f10x_dma.o
                0x080056f4                DMA_ClearITPendingBit
 .text          0x08005728        0x0 core_cm3.o
 .text.__get_PSP
                0x08005728       0x10 core_cm3.o
                0x08005728                __get_PSP
 .text.__set_PSP
                0x08005738        0x8 core_cm3.o
                0x08005738                __set_PSP
 .text.__get_MSP
                0x08005740       0x10 core_cm3.o
                0x08005740                __get_MSP
 .text.__set_MSP
                0x08005750        0x8 core_cm3.o
                0x08005750                __set_MSP
 .text.__get_BASEPRI
                0x08005758       0x20 core_cm3.o
                0x08005758                __get_BASEPRI
 .text.__set_BASEPRI
                0x08005778       0x18 core_cm3.o
                0x08005778                __set_BASEPRI
 .text.__get_PRIMASK
                0x08005790       0x20 core_cm3.o
                0x08005790                __get_PRIMASK
 .text.__set_PRIMASK
                0x080057b0       0x18 core_cm3.o
                0x080057b0                __set_PRIMASK
 .text.__get_FAULTMASK
                0x080057c8       0x20 core_cm3.o
                0x080057c8                __get_FAULTMASK
 .text.__set_FAULTMASK
                0x080057e8       0x18 core_cm3.o
                0x080057e8                __set_FAULTMASK
 .text.__REV    0x08005800       0x20 core_cm3.o
                0x08005800                __REV
 .text.__REV16  0x08005820       0x24 core_cm3.o
                0x08005820                __REV16
 .text.__REVSH  0x08005844       0x24 core_cm3.o
                0x08005844                __REVSH
 .text.__RBIT   0x08005868       0x24 core_cm3.o
                0x08005868                __RBIT
 .text.__LDREXB
                0x0800588c       0x24 core_cm3.o
                0x0800588c                __LDREXB
 .text.__LDREXH
                0x080058b0       0x24 core_cm3.o
                0x080058b0                __LDREXH
 .text.__LDREXW
                0x080058d4       0x24 core_cm3.o
                0x080058d4                __LDREXW
 .text.__STREXW
                0x080058f8       0x28 core_cm3.o
                0x080058f8                __STREXW
 .text.__get_CONTROL
                0x08005920       0x20 core_cm3.o
                0x08005920                __get_CONTROL
 .text.__set_CONTROL
                0x08005940       0x18 core_cm3.o
                0x08005940                __set_CONTROL
 .text          0x08005958       0x14 startup_stm32f10x.o
 .text.Reset_Handler
                0x0800596c       0x40 startup_stm32f10x.o
                0x0800596c                Reset_Handler
 .text.Default_Handler
                0x080059ac        0x2 startup_stm32f10x.o
                0x080059ac                HardFault_Handler
                0x080059ac                NMI_Handler
                0x080059ac                UsageFault_Handler
                0x080059ac                Default_Handler
                0x080059ac                MemManage_Handler
                0x080059ac                BusFault_Handler
                0x080059ac                DebugMon_Handler
 .text          0x080059ae        0x0 stm32f10x_rcc.o
 *fill*         0x080059ae        0x2 
 .text.RCC_DeInit
                0x080059b0       0xc0 stm32f10x_rcc.o
                0x080059b0                RCC_DeInit
 .text.RCC_HSEConfig
                0x08005a70       0x88 stm32f10x_rcc.o
                0x08005a70                RCC_HSEConfig
 .text.RCC_WaitForHSEStartUp
                0x08005af8       0x50 stm32f10x_rcc.o
                0x08005af8                RCC_WaitForHSEStartUp
 .text.RCC_AdjustHSICalibrationValue
                0x08005b48       0x44 stm32f10x_rcc.o
                0x08005b48                RCC_AdjustHSICalibrationValue
 .text.RCC_HSICmd
                0x08005b8c       0x20 stm32f10x_rcc.o
                0x08005b8c                RCC_HSICmd
 .text.RCC_PLLConfig
                0x08005bac       0x44 stm32f10x_rcc.o
                0x08005bac                RCC_PLLConfig
 .text.RCC_PLLCmd
                0x08005bf0       0x20 stm32f10x_rcc.o
                0x08005bf0                RCC_PLLCmd
 .text.RCC_PREDIV1Config
                0x08005c10       0x48 stm32f10x_rcc.o
                0x08005c10                RCC_PREDIV1Config
 .text.RCC_PREDIV2Config
                0x08005c58       0x40 stm32f10x_rcc.o
                0x08005c58                RCC_PREDIV2Config
 .text.RCC_PLL2Config
                0x08005c98       0x40 stm32f10x_rcc.o
                0x08005c98                RCC_PLL2Config
 .text.RCC_PLL2Cmd
                0x08005cd8       0x20 stm32f10x_rcc.o
                0x08005cd8                RCC_PLL2Cmd
 .text.RCC_PLL3Config
                0x08005cf8       0x40 stm32f10x_rcc.o
                0x08005cf8                RCC_PLL3Config
 .text.RCC_PLL3Cmd
                0x08005d38       0x20 stm32f10x_rcc.o
                0x08005d38                RCC_PLL3Cmd
 .text.RCC_SYSCLKConfig
                0x08005d58       0x40 stm32f10x_rcc.o
                0x08005d58                RCC_SYSCLKConfig
 .text.RCC_GetSYSCLKSource
                0x08005d98       0x20 stm32f10x_rcc.o
                0x08005d98                RCC_GetSYSCLKSource
 .text.RCC_HCLKConfig
                0x08005db8       0x40 stm32f10x_rcc.o
                0x08005db8                RCC_HCLKConfig
 .text.RCC_PCLK1Config
                0x08005df8       0x40 stm32f10x_rcc.o
                0x08005df8                RCC_PCLK1Config
 .text.RCC_PCLK2Config
                0x08005e38       0x40 stm32f10x_rcc.o
                0x08005e38                RCC_PCLK2Config
 .text.RCC_ITConfig
                0x08005e78       0x5c stm32f10x_rcc.o
                0x08005e78                RCC_ITConfig
 .text.RCC_OTGFSCLKConfig
                0x08005ed4       0x1c stm32f10x_rcc.o
                0x08005ed4                RCC_OTGFSCLKConfig
 .text.RCC_ADCCLKConfig
                0x08005ef0       0x40 stm32f10x_rcc.o
                0x08005ef0                RCC_ADCCLKConfig
 .text.RCC_I2S2CLKConfig
                0x08005f30       0x20 stm32f10x_rcc.o
                0x08005f30                RCC_I2S2CLKConfig
 .text.RCC_I2S3CLKConfig
                0x08005f50       0x20 stm32f10x_rcc.o
                0x08005f50                RCC_I2S3CLKConfig
 .text.RCC_LSEConfig
                0x08005f70       0x54 stm32f10x_rcc.o
                0x08005f70                RCC_LSEConfig
 .text.RCC_LSICmd
                0x08005fc4       0x20 stm32f10x_rcc.o
                0x08005fc4                RCC_LSICmd
 .text.RCC_RTCCLKConfig
                0x08005fe4       0x2c stm32f10x_rcc.o
                0x08005fe4                RCC_RTCCLKConfig
 .text.RCC_RTCCLKCmd
                0x08006010       0x20 stm32f10x_rcc.o
                0x08006010                RCC_RTCCLKCmd
 .text.RCC_GetClocksFreq
                0x08006030      0x230 stm32f10x_rcc.o
                0x08006030                RCC_GetClocksFreq
 .text.RCC_AHBPeriphClockCmd
                0x08006260       0x50 stm32f10x_rcc.o
                0x08006260                RCC_AHBPeriphClockCmd
 .text.RCC_APB2PeriphClockCmd
                0x080062b0       0x50 stm32f10x_rcc.o
                0x080062b0                RCC_APB2PeriphClockCmd
 .text.RCC_APB1PeriphClockCmd
                0x08006300       0x50 stm32f10x_rcc.o
                0x08006300                RCC_APB1PeriphClockCmd
 .text.RCC_AHBPeriphResetCmd
                0x08006350       0x50 stm32f10x_rcc.o
                0x08006350                RCC_AHBPeriphResetCmd
 .text.RCC_APB2PeriphResetCmd
                0x080063a0       0x50 stm32f10x_rcc.o
                0x080063a0                RCC_APB2PeriphResetCmd
 .text.RCC_APB1PeriphResetCmd
                0x080063f0       0x50 stm32f10x_rcc.o
                0x080063f0                RCC_APB1PeriphResetCmd
 .text.RCC_BackupResetCmd
                0x08006440       0x20 stm32f10x_rcc.o
                0x08006440                RCC_BackupResetCmd
 .text.RCC_ClockSecuritySystemCmd
                0x08006460       0x20 stm32f10x_rcc.o
                0x08006460                RCC_ClockSecuritySystemCmd
 .text.RCC_MCOConfig
                0x08006480       0x20 stm32f10x_rcc.o
                0x08006480                RCC_MCOConfig
 .text.RCC_GetFlagStatus
                0x080064a0       0x84 stm32f10x_rcc.o
                0x080064a0                RCC_GetFlagStatus
 .text.RCC_ClearFlag
                0x08006524       0x24 stm32f10x_rcc.o
                0x08006524                RCC_ClearFlag
 .text.RCC_GetITStatus
                0x08006548       0x38 stm32f10x_rcc.o
                0x08006548                RCC_GetITStatus
 .text.RCC_ClearITPendingBit
                0x08006580       0x20 stm32f10x_rcc.o
                0x08006580                RCC_ClearITPendingBit
 .text          0x080065a0        0x0 Os_Cfg.o
 .text          0x080065a0        0x0 EcuM.o
 .text.EcuM_Init
                0x080065a0      0x108 EcuM.o
                0x080065a0                EcuM_Init
 .text.EcuM_Shutdown
                0x080066a8       0x28 EcuM.o
                0x080066a8                EcuM_Shutdown
 .text.EcuM_SelectApplicationMode
                0x080066d0       0x24 EcuM.o
                0x080066d0                EcuM_SelectApplicationMode
 .text.EcuM_GetApplicationMode
                0x080066f4       0x24 EcuM.o
                0x080066f4                EcuM_GetApplicationMode
 .text.EcuM_SelectBootTarget
                0x08006718       0x18 EcuM.o
                0x08006718                EcuM_SelectBootTarget
 .text.EcuM_GetBootTarget
                0x08006730       0x18 EcuM.o
                0x08006730                EcuM_GetBootTarget
 .text.EcuM_SelectShutdownTarget
                0x08006748       0x34 EcuM.o
                0x08006748                EcuM_SelectShutdownTarget
 .text.EcuM_GetShutdownTarget
                0x0800677c       0x34 EcuM.o
                0x0800677c                EcuM_GetShutdownTarget
 .text.EcuM_GetLastShutdownTarget
                0x080067b0       0x18 EcuM.o
                0x080067b0                EcuM_GetLastShutdownTarget
 .text.EcuM_SetWakeupEvent
                0x080067c8       0x58 EcuM.o
                0x080067c8                EcuM_SetWakeupEvent
 .text.EcuM_ClearWakeupEvent
                0x08006820       0x48 EcuM.o
                0x08006820                EcuM_ClearWakeupEvent
 .text.EcuM_GetPendingWakeupEvents
                0x08006868       0x18 EcuM.o
                0x08006868                EcuM_GetPendingWakeupEvents
 .text.EcuM_GetValidatedWakeupEvents
                0x08006880       0x18 EcuM.o
                0x08006880                EcuM_GetValidatedWakeupEvents
 .text.EcuM_ValidateWakeupEvent
                0x08006898       0x2c EcuM.o
                0x08006898                EcuM_ValidateWakeupEvent
 .text          0x080068c4        0x0 EcuM_Fixed.o
 .text.EcuM_StartupTwo
                0x080068c4       0x34 EcuM_Fixed.o
                0x080068c4                EcuM_StartupTwo
 .text.EcuM_GetState
                0x080068f8       0x24 EcuM_Fixed.o
                0x080068f8                EcuM_GetState
 .text.EcuM_RequestRUN
                0x0800691c       0x4c EcuM_Fixed.o
                0x0800691c                EcuM_RequestRUN
 .text.EcuM_ReleaseRUN
                0x08006968       0x38 EcuM_Fixed.o
                0x08006968                EcuM_ReleaseRUN
 .text.EcuM_KillAllRUNRequests
                0x080069a0       0x34 EcuM_Fixed.o
                0x080069a0                EcuM_KillAllRUNRequests
 .text.EcuM_RequestPOST_RUN
                0x080069d4       0x4c EcuM_Fixed.o
                0x080069d4                EcuM_RequestPOST_RUN
 .text.EcuM_ReleasePOST_RUN
                0x08006a20       0x38 EcuM_Fixed.o
                0x08006a20                EcuM_ReleasePOST_RUN
 .text.EcuM_GetStatusOfWakeupSource
                0x08006a58       0x38 EcuM_Fixed.o
                0x08006a58                EcuM_GetStatusOfWakeupSource
 .text          0x08006a90        0x0 EcuM_Main.o
 .text.__disable_irq
                0x08006a90       0x10 EcuM_Main.o
 .text._Irq_Save
                0x08006aa0       0x1c EcuM_Main.o
 .text._Irq_Restore
                0x08006abc       0x14 EcuM_Main.o
 .text.SetCurrentState
                0x08006ad0       0x58 EcuM_Main.o
                0x08006ad0                SetCurrentState
 .text.SetComMCommunicationAllowed
                0x08006b28       0x18 EcuM_Main.o
 .text.EcuM_enter_run_mode
                0x08006b40       0x18 EcuM_Main.o
                0x08006b40                EcuM_enter_run_mode
 .text.enter_go_sleep_mode
                0x08006b58       0x10 EcuM_Main.o
 .text.in_state_goSleep
                0x08006b68       0xbc EcuM_Main.o
 .text.in_state_sleep
                0x08006c24       0x48 EcuM_Main.o
 .text.enter_go_off_one_mode
                0x08006c6c       0x18 EcuM_Main.o
 .text.hasRunRequests
                0x08006c84       0x2c EcuM_Main.o
 .text.hasPostRunRequests
                0x08006cb0       0x24 EcuM_Main.o
 .text.in_state_appRun
                0x08006cd4       0x5c EcuM_Main.o
 .text.in_state_appPostRun
                0x08006d30       0x30 EcuM_Main.o
 .text.in_state_prepShutdown
                0x08006d60       0x38 EcuM_Main.o
 .text.in_state_goOffOne
                0x08006d98        0xc EcuM_Main.o
 .text.EcuM_MainFunction
                0x08006da4      0x328 EcuM_Main.o
                0x08006da4                EcuM_MainFunction
 .text          0x080070cc        0x0 EcuM_PBcfg.o
 .text          0x080070cc        0x0 EcuM_PBHeader.o
 .text          0x080070cc        0x0 EcuM_Callout_Stubs.o
 .text.EcuM_ErrorHook
                0x080070cc       0x10 EcuM_Callout_Stubs.o
                0x080070cc                EcuM_ErrorHook
 .text._dummy   0x080070dc        0xc EcuM_Callout_Stubs.o
 .text.EcuM_DeterminePbConfiguration
                0x080070e8       0x28 EcuM_Callout_Stubs.o
                0x080070e8                EcuM_DeterminePbConfiguration
 .text.EcuM_AL_DriverInitZero
                0x08007110       0x10 EcuM_Callout_Stubs.o
                0x08007110                EcuM_AL_DriverInitZero
 .text.EcuM_AL_DriverInitOne
                0x08007120       0x48 EcuM_Callout_Stubs.o
                0x08007120                EcuM_AL_DriverInitOne
 .text.EcuM_AL_DriverInitTwo
                0x08007168       0x54 EcuM_Callout_Stubs.o
                0x08007168                EcuM_AL_DriverInitTwo
 .text.EcuM_AL_DriverInitThree
                0x080071bc       0x14 EcuM_Callout_Stubs.o
                0x080071bc                EcuM_AL_DriverInitThree
 .text.EcuM_LoopDetection
                0x080071d0       0x10 EcuM_Callout_Stubs.o
                0x080071d0                EcuM_LoopDetection
 .text.EcuM_OnEnterRun
                0x080071e0        0xc EcuM_Callout_Stubs.o
                0x080071e0                EcuM_OnEnterRun
 .text.EcuM_OnExitRun
                0x080071ec        0xc EcuM_Callout_Stubs.o
                0x080071ec                EcuM_OnExitRun
 .text.EcuM_OnExitPostRun
                0x080071f8        0xc EcuM_Callout_Stubs.o
                0x080071f8                EcuM_OnExitPostRun
 .text.EcuM_OnPrepShutdown
                0x08007204        0xc EcuM_Callout_Stubs.o
                0x08007204                EcuM_OnPrepShutdown
 .text.EcuM_OnGoSleep
                0x08007210        0xc EcuM_Callout_Stubs.o
                0x08007210                EcuM_OnGoSleep
 .text.EcuM_OnGoOffOne
                0x0800721c        0xc EcuM_Callout_Stubs.o
                0x0800721c                EcuM_OnGoOffOne
 .text.EcuM_OnGoOffTwo
                0x08007228        0xc EcuM_Callout_Stubs.o
                0x08007228                EcuM_OnGoOffTwo
 .text.EcuM_AL_SwitchOff
                0x08007234        0xc EcuM_Callout_Stubs.o
                0x08007234                EcuM_AL_SwitchOff
 .text.EcuM_CheckWakeup
                0x08007240       0x2c EcuM_Callout_Stubs.o
                0x08007240                EcuM_CheckWakeup
 .text.EcuM_EnableWakeupSources
                0x0800726c       0x14 EcuM_Callout_Stubs.o
                0x0800726c                EcuM_EnableWakeupSources
 .text.EcuM_DisableWakeupSources
                0x08007280       0x14 EcuM_Callout_Stubs.o
                0x08007280                EcuM_DisableWakeupSources
 .text.EcuM_StartWakeupSources
                0x08007294       0x24 EcuM_Callout_Stubs.o
                0x08007294                EcuM_StartWakeupSources
 .text.EcuM_StopWakeupSources
                0x080072b8       0x24 EcuM_Callout_Stubs.o
                0x080072b8                EcuM_StopWakeupSources
 .text.EcuM_CheckValidation
                0x080072dc       0x24 EcuM_Callout_Stubs.o
                0x080072dc                EcuM_CheckValidation
 .text.EcuM_AL_DriverRestart
                0x08007300       0x50 EcuM_Callout_Stubs.o
                0x08007300                EcuM_AL_DriverRestart
 .text.EcuM_OnWakeupReaction
                0x08007350       0x28 EcuM_Callout_Stubs.o
                0x08007350                EcuM_OnWakeupReaction
 .text.EcuM_GenerateRamHash
                0x08007378       0x20 EcuM_Callout_Stubs.o
                0x08007378                EcuM_GenerateRamHash
 .text.EcuM_CheckRamHash
                0x08007398       0x24 EcuM_Callout_Stubs.o
                0x08007398                EcuM_CheckRamHash
 .text          0x080073bc        0x0 Mcu.o
 .text.__enable_irq
                0x080073bc       0x10 Mcu.o
 .text.__DSB    0x080073cc       0x10 Mcu.o
 .text.NVIC_SystemReset
                0x080073dc       0x2c Mcu.o
 .text.Mcu_IdentifyCore
                0x08007408       0x50 Mcu.o
 .text.Mcu_CheckCpu
                0x08007458       0x2c Mcu.o
 .text.GetPllValueFromMult
                0x08007484       0x1c Mcu.o
 .text.GetPll2ValueFromMult
                0x080074a0       0x1c Mcu.o
 .text.SetClocks
                0x080074bc      0x228 Mcu.o
 .text.InitPerClocks
                0x080076e4       0x6c Mcu.o
 .text.InitMcuClocks
                0x08007750       0xc8 Mcu.o
 .text.Mcu_Init
                0x08007818       0x50 Mcu.o
                0x08007818                Mcu_Init
 .text.Mcu_InitRamSection
                0x08007868       0x5c Mcu.o
                0x08007868                Mcu_InitRamSection
 .text.Mcu_InitClock
                0x080078c4       0x98 Mcu.o
                0x080078c4                Mcu_InitClock
 .text.Mcu_DistributePllClock
                0x0800795c       0x30 Mcu.o
                0x0800795c                Mcu_DistributePllClock
 .text.Mcu_GetPllStatus
                0x0800798c       0x50 Mcu.o
                0x0800798c                Mcu_GetPllStatus
 .text.Mcu_GetResetReason
                0x080079dc       0x74 Mcu.o
                0x080079dc                Mcu_GetResetReason
 .text.Mcu_GetResetRawValue
                0x08007a50       0x58 Mcu.o
                0x08007a50                Mcu_GetResetRawValue
 .text.Mcu_SetMode
                0x08007aa8       0x40 Mcu.o
                0x08007aa8                Mcu_SetMode
 .text.Mcu_Arc_GetSystemClock
                0x08007ae8       0xb4 Mcu.o
                0x08007ae8                Mcu_Arc_GetSystemClock
 .text.Mcu_Arc_GetPeripheralClock
                0x08007b9c       0x44 Mcu.o
                0x08007b9c                Mcu_Arc_GetPeripheralClock
 .text.Mcu_GetVersionInfo
                0x08007be0       0x40 Mcu.o
                0x08007be0                Mcu_GetVersionInfo
 .text.Mcu_Arc_DeInit
                0x08007c20       0x18 Mcu.o
                0x08007c20                Mcu_Arc_DeInit
 .text.Mcu_ConfigureFlash
                0x08007c38        0xc Mcu.o
                0x08007c38                Mcu_ConfigureFlash
 .text          0x08007c44        0x0 Mcu_LCfg.o
 .text          0x08007c44        0x0 Mcu_PBcfg.o
 .text          0x08007c44        0x0 Dio.o
 .text.Channel_Config_Contains
                0x08007c44       0x4c Dio.o
 .text.Port_Config_Contains
                0x08007c90       0x4c Dio.o
 .text.Channel_Group_Config_Contains
                0x08007cdc       0x60 Dio.o
 .text.Dio_ReadPort
                0x08007d3c       0x70 Dio.o
                0x08007d3c                Dio_ReadPort
 .text.Dio_WritePort
                0x08007dac       0x68 Dio.o
                0x08007dac                Dio_WritePort
 .text.Dio_ReadChannel
                0x08007e14       0x84 Dio.o
                0x08007e14                Dio_ReadChannel
 .text.Dio_WriteChannel
                0x08007e98       0xa4 Dio.o
                0x08007e98                Dio_WriteChannel
 .text.Dio_ReadChannelGroup
                0x08007f3c       0x74 Dio.o
                0x08007f3c                Dio_ReadChannelGroup
 .text.Dio_WriteChannelGroup
                0x08007fb0       0xa8 Dio.o
                0x08007fb0                Dio_WriteChannelGroup
 .text.Dio_Init
                0x08008058       0x3c Dio.o
                0x08008058                Dio_Init
 .text          0x08008094        0x0 Dio_Lcfg.o
 .text          0x08008094        0x0 Port.o
 .text.Port_Init
                0x08008094       0xd4 Port.o
                0x08008094                Port_Init
 .text.Port_SetPinDirection
                0x08008168      0x124 Port.o
                0x08008168                Port_SetPinDirection
 .text.Port_RefreshPortDirection
                0x0800828c       0x24 Port.o
                0x0800828c                Port_RefreshPortDirection
 .text.Port_GetVersionInfo
                0x080082b0       0x34 Port.o
                0x080082b0                Port_GetVersionInfo
 .text          0x080082e4        0x0 Port_Lcfg.o
 .text          0x080082e4        0x0 Port_PBcfg.o
 .text          0x080082e4       0xcc arch_krn.o
                0x080082e4                SVC_Handler
                0x080082e8                PendSV_Handler
                0x08008308                Irq_Handler
                0x08008342                Irq_EOI2
                0x08008354                Os_ArchSetSpAndCall
                0x0800835e                Os_ArchSwapContext
                0x08008372                Os_ArchSwapContextTo
 .text          0x080083b0        0x0 os_event.o
 .text.__disable_irq
                0x080083b0       0x10 os_event.o
 .text._Irq_Save
                0x080083c0       0x1c os_event.o
 .text._Irq_Restore
                0x080083dc       0x14 os_event.o
 .text.Os_SysTaskGetCurr
                0x080083f0       0x18 os_event.o
 .text.Os_SchedulerResourceIsFree
                0x08008408       0x28 os_event.o
 .text.Os_TaskGet
                0x08008430       0x2c os_event.o
 .text.Os_TaskOccupiesResources
                0x0800845c       0x24 os_event.o
 .text.WaitEvent
                0x08008480      0x11c os_event.o
                0x08008480                WaitEvent
 .text.SetEvent
                0x0800859c      0x16c os_event.o
                0x0800859c                SetEvent
 .text.GetEvent
                0x08008708       0xec os_event.o
                0x08008708                GetEvent
 .text.ClearEvent
                0x080087f4       0xe0 os_event.o
                0x080087f4                ClearEvent
 .text          0x080088d4        0x0 os_init.o
 .text.__disable_irq
                0x080088d4       0x10 os_init.o
 .text.Os_TaskGet
                0x080088e4       0x2c os_init.o
 .text.copyPcbParts
                0x08008910       0x30 os_init.o
 .text.InitOS   0x08008940       0xfc os_init.o
                0x08008940                InitOS
 .text.os_start
                0x08008a3c      0x110 os_init.o
 .text.main     0x08008b4c       0x10 os_init.o
                0x08008b4c                main
 .text.StartOS  0x08008b5c       0x2c os_init.o
                0x08008b5c                StartOS
 .text.ShutdownOS
                0x08008b88       0x34 os_init.o
                0x08008b88                ShutdownOS
 .text          0x08008bbc        0x0 arch.o
 .text.__enable_irq
                0x08008bbc       0x10 arch.o
 .text.Os_ArchFirstCall
                0x08008bcc       0x1c arch.o
                0x08008bcc                Os_ArchFirstCall
 .text.Os_ArchGetStackPtr
                0x08008be8       0x10 arch.o
                0x08008be8                Os_ArchGetStackPtr
 .text.Os_ArchGetScSize
                0x08008bf8       0x10 arch.o
                0x08008bf8                Os_ArchGetScSize
 .text.Os_ArchSetTaskEntry
                0x08008c08       0x58 arch.o
                0x08008c08                Os_ArchSetTaskEntry
 .text.Os_ArchSetupContext
                0x08008c60       0x14 arch.o
                0x08008c60                Os_ArchSetupContext
 .text.Os_ArchInit
                0x08008c74        0xc arch.o
                0x08008c74                Os_ArchInit
 .text          0x08008c80        0x0 os_task.o
 .text.__disable_irq
                0x08008c80       0x10 os_task.o
 .text._Irq_Save
                0x08008c90       0x1c os_task.o
 .text._Irq_Restore
                0x08008cac       0x14 os_task.o
 .text.Os_SysTaskSetCurr
                0x08008cc0       0x20 os_task.o
 .text.Os_SysTaskGetCurr
                0x08008ce0       0x18 os_task.o
 .text.Os_SysIsrGetCurr
                0x08008cf8       0x18 os_task.o
 .text.Os_SysIntAnyDisabled
                0x08008d10       0x40 os_task.o
 .text.Os_SysIntClearAll
                0x08008d50       0x30 os_task.o
 .text.Os_SchedulerResourceIsFree
                0x08008d80       0x28 os_task.o
 .text.Os_TaskMakeRunning
                0x08008da8       0x18 os_task.o
 .text.Os_TaskGet
                0x08008dc0       0x2c os_task.o
 .text.Os_TaskResourceRemove
                0x08008dec       0x80 os_task.o
 .text.Os_TaskResourceFreeAll
                0x08008e6c       0x2c os_task.o
 .text.Os_StackGetUsage
                0x08008e98       0x3c os_task.o
 .text.Os_StackSetEndmark
                0x08008ed4       0x20 os_task.o
 .text.Os_StackIsEndmarkOk
                0x08008ef4       0x2c os_task.o
 .text.Os_TaskOccupiesResources
                0x08008f20       0x24 os_task.o
 .text.Os_TaskRunningToReady
                0x08008f44       0x20 os_task.o
 .text.Os_TaskMakeReady
                0x08008f64       0x5c os_task.o
                0x08008f64                Os_TaskMakeReady
 .text.Os_TaskMakeWaiting
                0x08008fc0       0x60 os_task.o
                0x08008fc0                Os_TaskMakeWaiting
 .text.Os_TaskMakeSuspended
                0x08009020       0x60 os_task.o
 .text.Os_TaskStartExtended
                0x08009080       0xa8 os_task.o
                0x08009080                Os_TaskStartExtended
 .text.Os_TaskStartBasic
                0x08009128       0xa8 os_task.o
                0x08009128                Os_TaskStartBasic
 .text.Os_StackSetup
                0x080091d0       0x4c os_task.o
                0x080091d0                Os_StackSetup
 .text.Os_StackFill
                0x0800921c       0x3c os_task.o
 .text.Os_TaskContextInit
                0x08009258       0x40 os_task.o
                0x08009258                Os_TaskContextInit
 .text.Os_TaskGetTop
                0x08009298       0x80 os_task.o
                0x08009298                Os_TaskGetTop
 .text.Os_TaskSetupAndSwap
                0x08009318       0x20 os_task.o
                0x08009318                Os_TaskSetupAndSwap
 .text.Os_Dispatch
                0x08009338      0x258 os_task.o
                0x08009338                Os_Dispatch
 .text.Os_TaskSwapContext
                0x08009590       0x90 os_task.o
                0x08009590                Os_TaskSwapContext
 .text.Os_TaskSwapContextTo
                0x08009620       0x90 os_task.o
                0x08009620                Os_TaskSwapContextTo
 .text.Os_Arc_GetStackInfo
                0x080096b0       0x4c os_task.o
                0x080096b0                Os_Arc_GetStackInfo
 .text.Os_Arc_GetTaskName
                0x080096fc       0x34 os_task.o
                0x080096fc                Os_Arc_GetTaskName
 .text.GetTaskState
                0x08009730      0x11c os_task.o
                0x08009730                GetTaskState
 .text.GetTaskID
                0x0800984c       0x58 os_task.o
                0x0800984c                GetTaskID
 .text.GetISRID
                0x080098a4       0x28 os_task.o
                0x080098a4                GetISRID
 .text.Os_Arc_SetCleanContext
                0x080098cc       0x38 os_task.o
 .text.ActivateTask
                0x08009904      0x17c os_task.o
                0x08009904                ActivateTask
 .text.TerminateTask
                0x08009a80       0xc0 os_task.o
                0x08009a80                TerminateTask
 .text.ChainTask
                0x08009b40      0x158 os_task.o
                0x08009b40                ChainTask
 .text.Schedule
                0x08009c98      0x108 os_task.o
                0x08009c98                Schedule
 .text.Os_Arc_GetTaskInfo
                0x08009da0       0x30 os_task.o
                0x08009da0                Os_Arc_GetTaskInfo
 .text          0x08009dd0        0x0 os_resource.o
 .text.__disable_irq
                0x08009dd0       0x10 os_resource.o
 .text._Irq_Save
                0x08009de0       0x1c os_resource.o
 .text._Irq_Restore
                0x08009dfc       0x14 os_resource.o
 .text.Os_SysTaskGetCurr
                0x08009e10       0x18 os_resource.o
 .text.Os_SysIsrGetCurr
                0x08009e28       0x18 os_resource.o
 .text.Os_ResourceGet
                0x08009e40       0x18 os_resource.o
 .text.Os_SchedulerResourceIsFree
                0x08009e58       0x28 os_resource.o
 .text.Os_TaskResourceAdd
                0x08009e80       0x58 os_resource.o
 .text.Os_TaskResourceRemove
                0x08009ed8       0x80 os_resource.o
 .text.GetResource
                0x08009f58      0x17c os_resource.o
                0x08009f58                GetResource
 .text.ReleaseResource
                0x0800a0d4      0x160 os_resource.o
                0x0800a0d4                ReleaseResource
 .text.Os_ResourceGetInternal
                0x0800a234       0x28 os_resource.o
                0x0800a234                Os_ResourceGetInternal
 .text.Os_ResourceReleaseInternal
                0x0800a25c       0x28 os_resource.o
                0x0800a25c                Os_ResourceReleaseInternal
 .text.Os_ResourceInit
                0x0800a284       0x58 os_resource.o
                0x0800a284                Os_ResourceInit
 .text          0x0800a2dc        0x0 os_alarm.o
 .text.__disable_irq
                0x0800a2dc       0x10 os_alarm.o
 .text._Irq_Save
                0x0800a2ec       0x1c os_alarm.o
 .text._Irq_Restore
                0x0800a308       0x14 os_alarm.o
 .text.Os_CounterGetMaxValue
                0x0800a31c       0x18 os_alarm.o
 .text.Os_CounterGetValue
                0x0800a334       0x18 os_alarm.o
 .text.Os_CounterDiff
                0x0800a34c       0x34 os_alarm.o
 .text.Os_CounterAdd
                0x0800a380       0x44 os_alarm.o
 .text.Os_AlarmGet
                0x0800a3c4       0x34 os_alarm.o
 .text.Os_AlarmGetBase
                0x0800a3f8       0x4c os_alarm.o
 .text.GetAlarmBase
                0x0800a444       0xcc os_alarm.o
                0x0800a444                GetAlarmBase
 .text.GetAlarm
                0x0800a510      0x11c os_alarm.o
                0x0800a510                GetAlarm
 .text.SetRelAlarm
                0x0800a62c      0x164 os_alarm.o
                0x0800a62c                SetRelAlarm
 .text.SetAbsAlarm
                0x0800a790      0x140 os_alarm.o
                0x0800a790                SetAbsAlarm
 .text.CancelAlarm
                0x0800a8d0       0xe8 os_alarm.o
                0x0800a8d0                CancelAlarm
 .text.AlarmProcess
                0x0800a9b8       0x4c os_alarm.o
 .text.Os_AlarmCheck
                0x0800aa04      0x114 os_alarm.o
                0x0800aa04                Os_AlarmCheck
 .text.Os_AlarmAutostart
                0x0800ab18       0x84 os_alarm.o
                0x0800ab18                Os_AlarmAutostart
 .text          0x0800ab9c        0x0 os_sched_table.o
 .text.__disable_irq
                0x0800ab9c       0x10 os_sched_table.o
 .text._Irq_Save
                0x0800abac       0x1c os_sched_table.o
 .text._Irq_Restore
                0x0800abc8       0x14 os_sched_table.o
 .text.Os_CounterGetMaxValue
                0x0800abdc       0x18 os_sched_table.o
 .text.Os_CounterGetMinCycle
                0x0800abf4       0x18 os_sched_table.o
 .text.Os_CounterGetValue
                0x0800ac0c       0x18 os_sched_table.o
 .text.Os_CounterAdd
                0x0800ac24       0x44 os_sched_table.o
 .text.Os_SchTblGet
                0x0800ac68       0x18 os_sched_table.o
 .text.Os_SchTblGetInitialOffset
                0x0800ac80       0x1c os_sched_table.o
 .text.Os_SchTblGetFinalOffset
                0x0800ac9c       0x30 os_sched_table.o
 .text.Os_SchTblUpdateState
                0x0800accc      0x1a8 os_sched_table.o
 .text.ScheduleTableConsistenyCheck
                0x0800ae74       0xb0 os_sched_table.o
 .text.StartScheduleTableRel
                0x0800af24      0x114 os_sched_table.o
                0x0800af24                StartScheduleTableRel
 .text.StartScheduleTableAbs
                0x0800b038       0xec os_sched_table.o
                0x0800b038                StartScheduleTableAbs
 .text.StopScheduleTable
                0x0800b124       0xb4 os_sched_table.o
                0x0800b124                StopScheduleTable
 .text.NextScheduleTable
                0x0800b1d8      0x13c os_sched_table.o
                0x0800b1d8                NextScheduleTable
 .text.GetScheduleTableStatus
                0x0800b314       0xc8 os_sched_table.o
                0x0800b314                GetScheduleTableStatus
 .text.Os_SchTblCheck
                0x0800b3dc       0xd0 os_sched_table.o
                0x0800b3dc                Os_SchTblCheck
 .text.Os_SchTblInit
                0x0800b4ac       0x18 os_sched_table.o
                0x0800b4ac                Os_SchTblInit
 .text.Os_SchTblAutostart
                0x0800b4c4       0x18 os_sched_table.o
                0x0800b4c4                Os_SchTblAutostart
 .text          0x0800b4dc        0x0 os_counter.o
 .text.__disable_irq
                0x0800b4dc       0x10 os_counter.o
 .text._Irq_Save
                0x0800b4ec       0x1c os_counter.o
 .text._Irq_Restore
                0x0800b508       0x14 os_counter.o
 .text.Os_CounterGetMaxValue
                0x0800b51c       0x18 os_counter.o
 .text.Os_CounterGet
                0x0800b534       0x2c os_counter.o
 .text.Os_CounterDiff
                0x0800b560       0x34 os_counter.o
 .text.Os_CounterAdd
                0x0800b594       0x44 os_counter.o
 .text.Os_AlarmGet
                0x0800b5d8       0x34 os_counter.o
 .text.IncrementCounter
                0x0800b60c       0xe8 os_counter.o
                0x0800b60c                IncrementCounter
 .text.GetCounterValue
                0x0800b6f4       0xd0 os_counter.o
                0x0800b6f4                GetCounterValue
 .text.GetElapsedValue
                0x0800b7c4       0xf4 os_counter.o
                0x0800b7c4                GetElapsedValue
 .text.OsTick   0x0800b8b8       0x68 os_counter.o
                0x0800b8b8                OsTick
 .text.GetOsTick
                0x0800b920       0x18 os_counter.o
                0x0800b920                GetOsTick
 .text.Os_CounterInit
                0x0800b938       0x40 os_counter.o
                0x0800b938                Os_CounterInit
 .text          0x0800b978        0x0 sys_tick.o
 .text.SysTick_Config
                0x0800b978       0x4c sys_tick.o
 .text.Os_SysTickInit
                0x0800b9c4       0x14 sys_tick.o
                0x0800b9c4                Os_SysTickInit
 .text.Os_SysTickStart
                0x0800b9d8       0x14 sys_tick.o
                0x0800b9d8                Os_SysTickStart
 .text          0x0800b9ec        0x0 os_isr.o
 .text.__enable_irq
                0x0800b9ec       0x10 os_isr.o
 .text.__disable_irq
                0x0800b9fc       0x10 os_isr.o
 .text.Os_SysTaskGetCurr
                0x0800ba0c       0x18 os_isr.o
 .text.Os_SysIntAnyDisabled
                0x0800ba24       0x40 os_isr.o
 .text.Os_SysIntClearAll
                0x0800ba64       0x30 os_isr.o
 .text.Os_SchedulerResourceIsFree
                0x0800ba94       0x28 os_isr.o
 .text.Os_ApplGetCore
                0x0800babc       0x2c os_isr.o
 .text.Os_StackIsEndmarkOk
                0x0800bae8       0x2c os_isr.o
 .text.Os_StackPerformCheck
                0x0800bb14       0x28 os_isr.o
 .text.Os_IsrResourceAdd
                0x0800bb3c       0x28 os_isr.o
                0x0800bb3c                Os_IsrResourceAdd
 .text.Os_IsrResourceRemove
                0x0800bb64       0x78 os_isr.o
 .text.Os_IsrResourceFreeAll
                0x0800bbdc       0x2c os_isr.o
 .text.Os_IsrOccupiesResources
                0x0800bc08       0x24 os_isr.o
 .text.Os_IsrInit
                0x0800bc2c       0x28 os_isr.o
                0x0800bc2c                Os_IsrInit
 .text.Os_IsrAdd
                0x0800bc54       0xe8 os_isr.o
                0x0800bc54                Os_IsrAdd
 .text.TailChaining
                0x0800bd3c       0xe0 os_isr.o
                0x0800bd3c                TailChaining
 .text.Os_Isr_cm3
                0x0800be1c      0x19c os_isr.o
                0x0800be1c                Os_Isr_cm3
 .text.Os_IsrGetStackInfo
                0x0800bfb8       0x28 os_isr.o
                0x0800bfb8                Os_IsrGetStackInfo
 .text.Os_IsrGet
                0x0800bfe0       0x44 os_isr.o
                0x0800bfe0                Os_IsrGet
 .text.Os_IsrGetApplicationOwner
                0x0800c024       0x40 os_isr.o
                0x0800c024                Os_IsrGetApplicationOwner
 .text.Os_Isr   0x0800c064      0x250 os_isr.o
                0x0800c064                Os_Isr
 .text.Os_Arc_GetIsrInfo
                0x0800c2b4       0x40 os_isr.o
                0x0800c2b4                Os_Arc_GetIsrInfo
 .text.Os_Arc_GetIsrCount
                0x0800c2f4       0x18 os_isr.o
                0x0800c2f4                Os_Arc_GetIsrCount
 .text          0x0800c30c        0x0 os_arctest.o
 .text.Os_TaskGet
                0x0800c30c       0x2c os_arctest.o
 .text.Os_ArcTest_GetTaskActivationLimit
                0x0800c338       0x24 os_arctest.o
                0x0800c338                Os_ArcTest_GetTaskActivationLimit
 .text.Os_ArcTest_SetIrqNestLevel
                0x0800c35c       0x20 os_arctest.o
                0x0800c35c                Os_ArcTest_SetIrqNestLevel
 .text          0x0800c37c        0x0 os_application.o
 .text.Os_ResourceGet
                0x0800c37c       0x18 os_application.o
 .text.Os_ResourceGetApplicationOwner
                0x0800c394       0x20 os_application.o
 .text.Os_ApplGet
                0x0800c3b4       0x24 os_application.o
 .text.Os_TaskGet
                0x0800c3d8       0x2c os_application.o
 .text.Os_TaskGetApplicationOwner
                0x0800c404       0x3c os_application.o
 .text.Os_CounterGet
                0x0800c440       0x2c os_application.o
 .text.Os_CounterGetApplicationOwner
                0x0800c46c       0x34 os_application.o
 .text.Os_AlarmGet
                0x0800c4a0       0x34 os_application.o
 .text.Os_AlarmGetApplicationOwner
                0x0800c4d4       0x30 os_application.o
 .text.Os_SchTblGet
                0x0800c504       0x18 os_application.o
 .text.Os_SchTblGetApplicationOwner
                0x0800c51c       0x20 os_application.o
 .text.GetApplicationID
                0x0800c53c       0x18 os_application.o
                0x0800c53c                GetApplicationID
 .text.CallTrustedFunction
                0x0800c554       0x1c os_application.o
                0x0800c554                CallTrustedFunction
 .text.CheckISRMemoryAccess
                0x0800c570       0x2c os_application.o
                0x0800c570                CheckISRMemoryAccess
 .text.CheckTaskMemoryAccess
                0x0800c59c       0x2c os_application.o
                0x0800c59c                CheckTaskMemoryAccess
 .text.CheckObjectAccess
                0x0800c5c8      0x22c os_application.o
                0x0800c5c8                CheckObjectAccess
 .text.CheckObjectOwnership
                0x0800c7f4      0x140 os_application.o
                0x0800c7f4                CheckObjectOwnership
 .text.TerminateApplication
                0x0800c934      0x124 os_application.o
                0x0800c934                TerminateApplication
 .text.AllowAccess
                0x0800ca58       0xc8 os_application.o
                0x0800ca58                AllowAccess
 .text.GetApplicationState
                0x0800cb20       0xcc os_application.o
                0x0800cb20                GetApplicationState
 .text.GetActiveApplicationMode
                0x0800cbec       0x24 os_application.o
                0x0800cbec                GetActiveApplicationMode
 .text.Os_ApplStart
                0x0800cc10       0x68 os_application.o
                0x0800cc10                Os_ApplStart
 .text          0x0800cc78        0x0 irq.o
 .text.NVIC_SetPriorityGrouping
                0x0800cc78       0x50 irq.o
 .text.NVIC_SetPriority
                0x0800ccc8       0x58 irq.o
 .text.NVIC_InitVector
                0x0800cd20       0x40 irq.o
 .text.Irq_Init
                0x0800cd60       0x38 irq.o
                0x0800cd60                Irq_Init
 .text.Irq_EOI  0x0800cd98        0xc irq.o
                0x0800cd98                Irq_EOI
 .text.osPrioToCpuPio
                0x0800cda4       0x28 irq.o
 .text.Irq_EnableVector
                0x0800cdcc       0x30 irq.o
                0x0800cdcc                Irq_EnableVector
 .text.Irq_GenerateSoftInt
                0x0800cdfc       0x24 irq.o
                0x0800cdfc                Irq_GenerateSoftInt
 .text.Irq_GetCurrentPriority
                0x0800ce20       0x1c irq.o
                0x0800ce20                Irq_GetCurrentPriority
 .text          0x0800ce3c        0x0 Det.o
 .text.__disable_irq
                0x0800ce3c       0x10 Det.o
 .text._Irq_Save
                0x0800ce4c       0x1c Det.o
 .text._Irq_Restore
                0x0800ce68       0x14 Det.o
 .text.Det_Init
                0x0800ce7c       0x9c Det.o
                0x0800ce7c                Det_Init
 .text.Det_ReportError
                0x0800cf18       0xf0 Det.o
                0x0800cf18                Det_ReportError
 .text.Det_Start
                0x0800d008       0x18 Det.o
                0x0800d008                Det_Start
 .text          0x0800d020        0x0 Det_Cfg.o
 .text          0x0800d020        0x0 Com_Cfg.o
 .text          0x0800d020        0x0 Com_PbCfg.o
 .text          0x0800d020        0x0 Com_Com.o
 .text.getPduId
                0x0800d020       0x34 Com_Com.o
 .text.__disable_irq
                0x0800d054       0x10 Com_Com.o
 .text._Irq_Save
                0x0800d064       0x1c Com_Com.o
 .text._Irq_Restore
                0x0800d080       0x14 Com_Com.o
 .text.ResetInternalCounter
                0x0800d094       0x24 Com_Com.o
                0x0800d094                ResetInternalCounter
 .text.ReSetInternalRxStartSts
                0x0800d0b8       0x24 Com_Com.o
                0x0800d0b8                ReSetInternalRxStartSts
 .text.ResetInternalCounterRxStartSts
                0x0800d0dc       0x40 Com_Com.o
                0x0800d0dc                ResetInternalCounterRxStartSts
 .text.updateIPduCntr
                0x0800d11c       0x9c Com_Com.o
 .text.extractIPduCntr
                0x0800d1b8       0x58 Com_Com.o
 .text.validateIPduCounter
                0x0800d210       0xd0 Com_Com.o
 .text.Com_SendSignal
                0x0800d2e0      0x1d4 Com_Com.o
                0x0800d2e0                Com_SendSignal
 .text.Com_ReceiveSignal
                0x0800d4b4      0x178 Com_Com.o
                0x0800d4b4                Com_ReceiveSignal
 .text.Com_ReceiveDynSignal
                0x0800d62c      0x144 Com_Com.o
                0x0800d62c                Com_ReceiveDynSignal
 .text.Com_SendDynSignal
                0x0800d770      0x210 Com_Com.o
                0x0800d770                Com_SendDynSignal
 .text.Com_TriggerTransmit
                0x0800d980       0xa4 Com_Com.o
                0x0800d980                Com_TriggerTransmit
 .text.Com_TriggerIPDUSend
                0x0800da24      0x248 Com_Com.o
                0x0800da24                Com_TriggerIPDUSend
 .text.Com_RxIndication
                0x0800dc6c      0x190 Com_Com.o
                0x0800dc6c                Com_RxIndication
 .text.Com_TpRxIndication
                0x0800ddfc       0xc4 Com_Com.o
                0x0800ddfc                Com_TpRxIndication
 .text.Com_TpTxConfirmation
                0x0800dec0       0x48 Com_Com.o
                0x0800dec0                Com_TpTxConfirmation
 .text.Com_TxConfirmation
                0x0800df08       0xc0 Com_Com.o
                0x0800df08                Com_TxConfirmation
 .text.Com_SendSignalGroup
                0x0800dfc8      0x1b8 Com_Com.o
                0x0800dfc8                Com_SendSignalGroup
 .text.Com_ReceiveSignalGroup
                0x0800e180       0xb8 Com_Com.o
                0x0800e180                Com_ReceiveSignalGroup
 .text.Com_UpdateShadowSignal
                0x0800e238       0x58 Com_Com.o
                0x0800e238                Com_UpdateShadowSignal
 .text.Com_ReceiveShadowSignal
                0x0800e290       0xec Com_Com.o
                0x0800e290                Com_ReceiveShadowSignal
 .text          0x0800e37c        0x0 Com_Sched.o
 .text.getPduId
                0x0800e37c       0x34 Com_Sched.o
 .text.__disable_irq
                0x0800e3b0       0x10 Com_Sched.o
 .text._Irq_Save
                0x0800e3c0       0x1c Com_Sched.o
 .text._Irq_Restore
                0x0800e3dc       0x14 Com_Sched.o
 .text.Com_MainFunctionRx
                0x0800e3f0      0x2d8 Com_Sched.o
                0x0800e3f0                Com_MainFunctionRx
 .text.Com_MainFunctionTx
                0x0800e6c8      0x1fc Com_Sched.o
                0x0800e6c8                Com_MainFunctionTx
 .text          0x0800e8c4        0x0 Com.o
 .text.__disable_irq
                0x0800e8c4       0x10 Com.o
 .text._Irq_Save
                0x0800e8d4       0x1c Com.o
 .text._Irq_Restore
                0x0800e8f0       0x14 Com.o
 .text.Com_Init
                0x0800e904      0x3a0 Com.o
                0x0800e904                Com_Init
 .text.Com_DeInit
                0x0800eca4       0x74 Com.o
                0x0800eca4                Com_DeInit
 .text.Com_GetStatus
                0x0800ed18       0x18 Com.o
                0x0800ed18                Com_GetStatus
 .text.Com_IpduGroupControl
                0x0800ed30      0x164 Com.o
                0x0800ed30                Com_IpduGroupControl
 .text.Com_ClearIpduGroupVector
                0x0800ee94       0x28 Com.o
                0x0800ee94                Com_ClearIpduGroupVector
 .text.Com_SetIpduGroup
                0x0800eebc       0x84 Com.o
                0x0800eebc                Com_SetIpduGroup
 .text.Com_CopyTxData
                0x0800ef40      0x148 Com.o
                0x0800ef40                Com_CopyTxData
 .text.Com_CopyRxData
                0x0800f088      0x158 Com.o
                0x0800f088                Com_CopyRxData
 .text.Com_SetDynSignalLength
                0x0800f1e0       0x84 Com.o
 .text.Com_StartOfReception
                0x0800f264       0xf0 Com.o
                0x0800f264                Com_StartOfReception
 .text          0x0800f354        0x0 Com_misc.o
 .text.__disable_irq
                0x0800f354       0x10 Com_misc.o
 .text._Irq_Save
                0x0800f364       0x1c Com_misc.o
 .text._Irq_Restore
                0x0800f380       0x14 Com_misc.o
 .text.Com_CopySignalGroupDataFromShadowBufferToPdu
                0x0800f394      0x134 Com_misc.o
                0x0800f394                Com_CopySignalGroupDataFromShadowBufferToPdu
 .text.Com_CopySignalGroupDataFromPduToShadowBuffer
                0x0800f4c8       0xf4 Com_misc.o
                0x0800f4c8                Com_CopySignalGroupDataFromPduToShadowBuffer
 .text.Com_Internal_ReadSignalDataFromPdu
                0x0800f5bc      0x208 Com_misc.o
                0x0800f5bc                Com_Internal_ReadSignalDataFromPdu
 .text.Com_WriteSignalDataToPdu
                0x0800f7c4      0x360 Com_misc.o
                0x0800f7c4                Com_WriteSignalDataToPdu
 .text.Com_RxProcessSignals
                0x0800fb24      0x100 Com_misc.o
                0x0800fb24                Com_RxProcessSignals
 .text.UnlockTpBuffer
                0x0800fc24       0x38 Com_misc.o
                0x0800fc24                UnlockTpBuffer
 .text.Com_Internal_UpdateShadowSignal
                0x0800fc5c       0x60 Com_misc.o
                0x0800fc5c                Com_Internal_UpdateShadowSignal
 .text.SetTxConfirmationStatus
                0x0800fcbc       0x48 Com_misc.o
                0x0800fcbc                SetTxConfirmationStatus
 .text.GetTxConfirmationStatus
                0x0800fd04       0x50 Com_misc.o
                0x0800fd04                GetTxConfirmationStatus
 .text          0x0800fd54        0x0 PduR_CanNm.o
 .text.PduR_CanNmRxIndication
                0x0800fd54       0x20 PduR_CanNm.o
                0x0800fd54                PduR_CanNmRxIndication
 .text.PduR_CanNmTxConfirmation
                0x0800fd74       0x1c PduR_CanNm.o
                0x0800fd74                PduR_CanNmTxConfirmation
 .text.PduR_CanNmTriggerTransmit
                0x0800fd90       0x24 PduR_CanNm.o
                0x0800fd90                PduR_CanNmTriggerTransmit
 .text          0x0800fdb4        0x0 PduR_Com.o
 .text.PduR_ComTransmit
                0x0800fdb4       0x24 PduR_Com.o
                0x0800fdb4                PduR_ComTransmit
 .text.PduR_ComCancelTransmit
                0x0800fdd8       0x20 PduR_Com.o
                0x0800fdd8                PduR_ComCancelTransmit
 .text.PduR_ComChangeParameter
                0x0800fdf8       0x2c PduR_Com.o
                0x0800fdf8                PduR_ComChangeParameter
 .text.PduR_ComCancelReceive
                0x0800fe24       0x20 PduR_Com.o
                0x0800fe24                PduR_ComCancelReceive
 .text          0x0800fe44        0x0 PduR_Logic.o
 .text.PduR_ARC_AllocateBuffer
                0x0800fe44      0x108 PduR_Logic.o
 .text.PduR_ARC_CheckBufferStatus
                0x0800ff4c       0xf4 PduR_Logic.o
 .text.PduR_ARC_ReleaseRxBuffer
                0x08010040       0xb8 PduR_Logic.o
 .text.PduR_ARC_ReleaseTxBuffer
                0x080100f8       0x90 PduR_Logic.o
 .text.PduR_ARC_Transmit
                0x08010188       0xdc PduR_Logic.o
                0x08010188                PduR_ARC_Transmit
 .text.PduR_ARC_RxIndicationTT
                0x08010264       0x6c PduR_Logic.o
 .text.PduR_ARC_RxIndicationDirect
                0x080102d0       0x30 PduR_Logic.o
 .text.PduR_ARC_RxIndicationWithUpBuffer
                0x08010300      0x16c PduR_Logic.o
 .text.PduR_ARC_TpRxIndication
                0x0801046c      0x164 PduR_Logic.o
                0x0801046c                PduR_ARC_TpRxIndication
 .text.PduR_ARC_RxIndication
                0x080105d0      0x1e4 PduR_Logic.o
                0x080105d0                PduR_ARC_RxIndication
 .text.PduR_ARC_TxConfirmation
                0x080107b4      0x198 PduR_Logic.o
                0x080107b4                PduR_ARC_TxConfirmation
 .text.PduR_ARC_TriggerTransmit
                0x0801094c      0x124 PduR_Logic.o
                0x0801094c                PduR_ARC_TriggerTransmit
 .text.PduR_ARC_HasTpModuleDest
                0x08010a70       0x64 PduR_Logic.o
 .text.PduR_ARC_FindUPDest
                0x08010ad4       0x68 PduR_Logic.o
 .text.PduR_UpTransmit
                0x08010b3c       0x28 PduR_Logic.o
                0x08010b3c                PduR_UpTransmit
 .text.PduR_UpCancelTransmit
                0x08010b64       0x1c PduR_Logic.o
                0x08010b64                PduR_UpCancelTransmit
 .text.PduR_UpChangeParameter
                0x08010b80       0x18 PduR_Logic.o
                0x08010b80                PduR_UpChangeParameter
 .text.PduR_UpCancelReceive
                0x08010b98       0x1c PduR_Logic.o
                0x08010b98                PduR_UpCancelReceive
 .text.PduR_LoIfRxIndication
                0x08010bb4       0x24 PduR_Logic.o
                0x08010bb4                PduR_LoIfRxIndication
 .text.PduR_LoIfTxConfirmation
                0x08010bd8       0x28 PduR_Logic.o
                0x08010bd8                PduR_LoIfTxConfirmation
 .text.PduR_LoIfTriggerTransmit
                0x08010c00       0x28 PduR_Logic.o
                0x08010c00                PduR_LoIfTriggerTransmit
 .text.PduR_LoTpCopyRxData
                0x08010c28      0x3d8 PduR_Logic.o
                0x08010c28                PduR_LoTpCopyRxData
 .text.PduR_LoTpRxIndication
                0x08011000       0x28 PduR_Logic.o
                0x08011000                PduR_LoTpRxIndication
 .text.PduR_LoTpStartOfReception
                0x08011028      0x1a8 PduR_Logic.o
                0x08011028                PduR_LoTpStartOfReception
 .text.PduR_LoTpCopyTxData
                0x080111d0      0x350 PduR_Logic.o
                0x080111d0                PduR_LoTpCopyTxData
 .text.PduR_LoTpTxConfirmation
                0x08011520       0x28 PduR_Logic.o
                0x08011520                PduR_LoTpTxConfirmation
 .text          0x08011548        0x0 PduR_LinIf.o
 .text          0x08011548        0x0 PduR_PbCfg.o
 .text          0x08011548        0x0 PduR_Cfg.o
 .text          0x08011548        0x0 PduR_CanIf.o
 .text          0x08011548        0x0 PduR_CanTp.o
 .text          0x08011548        0x0 PduR_J1939Tp.o
 .text          0x08011548        0x0 PduR_IpduM.o
 .text          0x08011548        0x0 PduR_Dcm.o
 .text          0x08011548        0x0 PduR_SoAd.o
 .text          0x08011548        0x0 PduR_Routing.o
 .text.PduR_ARC_RouteTransmit
                0x08011548       0x7c PduR_Routing.o
                0x08011548                PduR_ARC_RouteTransmit
 .text.PduR_ARC_RouteRxIndication
                0x080115c4       0x38 PduR_Routing.o
                0x080115c4                PduR_ARC_RouteRxIndication
 .text.PduR_ARC_RouteTxConfirmation
                0x080115fc       0x38 PduR_Routing.o
                0x080115fc                PduR_ARC_RouteTxConfirmation
 .text.PduR_ARC_RouteTriggerTransmit
                0x08011634       0x40 PduR_Routing.o
                0x08011634                PduR_ARC_RouteTriggerTransmit
 .text.PduR_ARC_RouteCopyRxData
                0x08011674       0x2c PduR_Routing.o
                0x08011674                PduR_ARC_RouteCopyRxData
 .text.PduR_ARC_RouteCopyTxData
                0x080116a0       0x2c PduR_Routing.o
                0x080116a0                PduR_ARC_RouteCopyTxData
 .text.PduR_ARC_RouteStartOfReception
                0x080116cc       0x2c PduR_Routing.o
                0x080116cc                PduR_ARC_RouteStartOfReception
 .text          0x080116f8        0x0 PduR.o
 .text.PduR_Init
                0x080116f8       0xf4 PduR.o
                0x080116f8                PduR_Init
 .text.PduR_GetConfigurationId
                0x080117ec       0x1c PduR.o
                0x080117ec                PduR_GetConfigurationId
 .text.PduR_EnableRouting
                0x08011808       0x14 PduR.o
                0x08011808                PduR_EnableRouting
 .text.PduR_DisableRouting
                0x0801181c       0x14 PduR.o
                0x0801181c                PduR_DisableRouting
 .text          0x08011830        0x0 IoHwAb_Digital.o
 .text.__disable_irq
                0x08011830       0x10 IoHwAb_Digital.o
 .text._Irq_Save
                0x08011840       0x1c IoHwAb_Digital.o
 .text._Irq_Restore
                0x0801185c       0x14 IoHwAb_Digital.o
 .text.IoHwAb_Digital_Write_MOTOR_1
                0x08011870       0x68 IoHwAb_Digital.o
                0x08011870                IoHwAb_Digital_Write_MOTOR_1
 .text.IoHwAb_Digital_Write_MOTOR_2
                0x080118d8       0x68 IoHwAb_Digital.o
                0x080118d8                IoHwAb_Digital_Write_MOTOR_2
 .text.IoHwAb_Digital_Read_MOTOR_1
                0x08011940       0x54 IoHwAb_Digital.o
                0x08011940                IoHwAb_Digital_Read_MOTOR_1
 .text.IoHwAb_Digital_Read_EndStop
                0x08011994       0x78 IoHwAb_Digital.o
                0x08011994                IoHwAb_Digital_Read_EndStop
 .text.IoHwAb_Digital_Read_Obstacle
                0x08011a0c       0x78 IoHwAb_Digital.o
                0x08011a0c                IoHwAb_Digital_Read_Obstacle
 .text.IoHwAb_Digital_Read_MOTOR_2
                0x08011a84       0x54 IoHwAb_Digital.o
                0x08011a84                IoHwAb_Digital_Read_MOTOR_2
 .text.IoHwAb_Dcm_MOTOR_1
                0x08011ad8      0x130 IoHwAb_Digital.o
                0x08011ad8                IoHwAb_Dcm_MOTOR_1
 .text.IoHwAb_Dcm_Read_MOTOR_1
                0x08011c08       0x54 IoHwAb_Digital.o
                0x08011c08                IoHwAb_Dcm_Read_MOTOR_1
 .text.IoHwAb_Dcm_EndStop
                0x08011c5c      0x10c IoHwAb_Digital.o
                0x08011c5c                IoHwAb_Dcm_EndStop
 .text.IoHwAb_Dcm_Read_EndStop
                0x08011d68       0x54 IoHwAb_Digital.o
                0x08011d68                IoHwAb_Dcm_Read_EndStop
 .text.IoHwAb_Dcm_Obstacle
                0x08011dbc      0x10c IoHwAb_Digital.o
                0x08011dbc                IoHwAb_Dcm_Obstacle
 .text.IoHwAb_Dcm_Read_Obstacle
                0x08011ec8       0x54 IoHwAb_Digital.o
                0x08011ec8                IoHwAb_Dcm_Read_Obstacle
 .text.IoHwAb_Dcm_MOTOR_2
                0x08011f1c      0x130 IoHwAb_Digital.o
                0x08011f1c                IoHwAb_Dcm_MOTOR_2
 .text.IoHwAb_Dcm_Read_MOTOR_2
                0x0801204c       0x54 IoHwAb_Digital.o
                0x0801204c                IoHwAb_Dcm_Read_MOTOR_2
 .text.IoHwAb_Digital_Write
                0x080120a0       0x50 IoHwAb_Digital.o
                0x080120a0                IoHwAb_Digital_Write
 .text.IoHwAb_Digital_Read
                0x080120f0       0x50 IoHwAb_Digital.o
                0x080120f0                IoHwAb_Digital_Read
 .text          0x08012140        0x0 IoHwAb_Analog.o
 .text          0x08012140        0x0 IoHwAb_Pwm.o
 .text          0x08012140        0x0 ramlog.o
 .text.ramlog_chr
                0x08012140       0x54 ramlog.o
                0x08012140                ramlog_chr
 .text.ramlog_fputs
                0x08012194       0x28 ramlog.o
                0x08012194                ramlog_fputs
 .text.ramlog_puts
                0x080121bc       0x1c ramlog.o
                0x080121bc                ramlog_puts
 .text.ramlog_printf
                0x080121d8       0x48 ramlog.o
                0x080121d8                ramlog_printf
 .text.ramlog_init
                0x08012220       0x34 ramlog.o
                0x08012220                ramlog_init
 .text.Ramlog_Write
                0x08012254       0x38 ramlog.o
 .text.Ramlog_Open
                0x0801228c       0x1c ramlog.o
 .text          0x080122a8        0x0 cirq_buffer.o
 .text.__disable_irq
                0x080122a8       0x10 cirq_buffer.o
 .text._Irq_Save
                0x080122b8       0x1c cirq_buffer.o
 .text._Irq_Restore
                0x080122d4       0x14 cirq_buffer.o
 .text.CirqBuff_Init
                0x080122e8       0x54 cirq_buffer.o
                0x080122e8                CirqBuff_Init
 .text.CirqBuffStatCreate
                0x0801233c       0x54 cirq_buffer.o
                0x0801233c                CirqBuffStatCreate
 .text.CirqBuffDynCreate
                0x08012390       0x70 cirq_buffer.o
                0x08012390                CirqBuffDynCreate
 .text.CirqBuffDynDestroy
                0x08012400       0x24 cirq_buffer.o
                0x08012400                CirqBuffDynDestroy
 .text.CirqBuffPush
                0x08012424       0x7c cirq_buffer.o
                0x08012424                CirqBuffPush
 .text.CirqBuffPop
                0x080124a0       0x78 cirq_buffer.o
                0x080124a0                CirqBuffPop
 .text.CirqBuff_PushLock
                0x08012518       0x54 cirq_buffer.o
                0x08012518                CirqBuff_PushLock
 .text.CirqBuff_PopLock
                0x0801256c       0x5c cirq_buffer.o
                0x0801256c                CirqBuff_PopLock
 .text          0x080125c8        0x0 clib_port.o
 .text.fileno   0x080125c8       0x18 clib_port.o
                0x080125c8                fileno
 .text._open    0x080125e0       0x84 clib_port.o
                0x080125e0                _open
 .text._fstat   0x08012664       0x20 clib_port.o
                0x08012664                _fstat
 .text._getpid  0x08012684       0x10 clib_port.o
                0x08012684                _getpid
 .text._kill    0x08012694       0x28 clib_port.o
                0x08012694                _kill
 .text._close   0x080126bc       0x18 clib_port.o
                0x080126bc                _close
 .text._isatty  0x080126d4       0x18 clib_port.o
                0x080126d4                _isatty
 .text._sbrk    0x080126ec       0x8c clib_port.o
                0x080126ec                _sbrk
 .text._read    0x08012778       0x2c clib_port.o
                0x08012778                _read
 .text._write   0x080127a4       0x50 clib_port.o
                0x080127a4                _write
 .text._lseek   0x080127f4       0x28 clib_port.o
                0x080127f4                _lseek
 .text.__init   0x0801281c        0xc clib_port.o
                0x0801281c                __init
 .text._exit    0x08012828       0x10 clib_port.o
                0x08012828                _exit
 .text          0x08012838        0x0 clib.o
 .text          0x08012838        0x0 printf.o
 .text.fputc    0x08012838       0x30 printf.o
                0x08012838                fputc
 .text.fputs    0x08012868       0x30 printf.o
                0x08012868                fputs
 .text.fgetc    0x08012898       0x28 printf.o
                0x08012898                fgetc
 .text.fgets    0x080128c0       0x2c printf.o
                0x080128c0                fgets
 .text.printf   0x080128ec       0x38 printf.o
                0x080128ec                printf
 .text.fprintf  0x08012924       0x2c printf.o
                0x08012924                fprintf
 .text.sprintf  0x08012950       0x30 printf.o
                0x08012950                sprintf
 .text.snprintf
                0x08012980       0x30 printf.o
                0x08012980                snprintf
 .text.vprintf  0x080129b0       0x2c printf.o
                0x080129b0                vprintf
 .text.vsprintf
                0x080129dc       0x24 printf.o
                0x080129dc                vsprintf
 .text.vfprintf
                0x08012a00       0x2c printf.o
                0x08012a00                vfprintf
 .text.vsnprintf
                0x08012a2c       0x30 printf.o
                0x08012a2c                vsnprintf
 .text.emitChar
                0x08012a5c       0x60 printf.o
 .text.emitString
                0x08012abc       0xe0 printf.o
 .text.emitInt  0x08012b9c       0x5c printf.o
                0x08012b9c                emitInt
 .text.print    0x08012bf8      0x2a0 printf.o
                0x08012bf8                print
 .text          0x08012e98        0x0 xtoa.o
 .text.xtoa     0x08012e98       0xc4 xtoa.o
                0x08012e98                xtoa
 .text.ultoa    0x08012f5c       0x20 xtoa.o
                0x08012f5c                ultoa
 .text.itoa     0x08012f7c       0x28 xtoa.o
                0x08012f7c                itoa
 .text          0x08012fa4        0x0 stm32f10x_gpio.o
 .text.GPIO_DeInit
                0x08012fa4       0xf0 stm32f10x_gpio.o
                0x08012fa4                GPIO_DeInit
 .text.GPIO_AFIODeInit
                0x08013094       0x18 stm32f10x_gpio.o
                0x08013094                GPIO_AFIODeInit
 .text.GPIO_Init
                0x080130ac      0x178 stm32f10x_gpio.o
                0x080130ac                GPIO_Init
 .text.GPIO_StructInit
                0x08013224       0x28 stm32f10x_gpio.o
                0x08013224                GPIO_StructInit
 .text.GPIO_ReadInputDataBit
                0x0801324c       0x34 stm32f10x_gpio.o
                0x0801324c                GPIO_ReadInputDataBit
 .text.GPIO_ReadInputData
                0x08013280       0x1c stm32f10x_gpio.o
                0x08013280                GPIO_ReadInputData
 .text.GPIO_ReadOutputDataBit
                0x0801329c       0x34 stm32f10x_gpio.o
                0x0801329c                GPIO_ReadOutputDataBit
 .text.GPIO_ReadOutputData
                0x080132d0       0x1c stm32f10x_gpio.o
                0x080132d0                GPIO_ReadOutputData
 .text.GPIO_SetBits
                0x080132ec       0x1c stm32f10x_gpio.o
                0x080132ec                GPIO_SetBits
 .text.GPIO_ResetBits
                0x08013308       0x1c stm32f10x_gpio.o
                0x08013308                GPIO_ResetBits
 .text.GPIO_WriteBit
                0x08013324       0x30 stm32f10x_gpio.o
                0x08013324                GPIO_WriteBit
 .text.GPIO_Write
                0x08013354       0x1c stm32f10x_gpio.o
                0x08013354                GPIO_Write
 .text.GPIO_PinLockConfig
                0x08013370       0x44 stm32f10x_gpio.o
                0x08013370                GPIO_PinLockConfig
 .text.GPIO_EventOutputConfig
                0x080133b4       0x4c stm32f10x_gpio.o
                0x080133b4                GPIO_EventOutputConfig
 .text.GPIO_EventOutputCmd
                0x08013400       0x20 stm32f10x_gpio.o
                0x08013400                GPIO_EventOutputCmd
 .text.GPIO_PinRemapConfig
                0x08013420       0xf4 stm32f10x_gpio.o
                0x08013420                GPIO_PinRemapConfig
 .text.GPIO_EXTILineConfig
                0x08013514       0x8c stm32f10x_gpio.o
                0x08013514                GPIO_EXTILineConfig
 .text.GPIO_ETH_MediaInterfaceConfig
                0x080135a0       0x1c stm32f10x_gpio.o
                0x080135a0                GPIO_ETH_MediaInterfaceConfig
 .text          0x080135bc       0x10 d:/research/pwc/arccore/com.arccore.a4.arm.bundle-win32.win32.x86_64/msys/opt/arm-none-eabi/bin/../lib/gcc/arm-none-eabi/4.8.2/../../../../arm-none-eabi/lib/thumb/armv7-m\libc.a(lib_a-abort.o)
                0x080135bc                abort
 .text          0x080135cc       0xdc d:/research/pwc/arccore/com.arccore.a4.arm.bundle-win32.win32.x86_64/msys/opt/arm-none-eabi/bin/../lib/gcc/arm-none-eabi/4.8.2/../../../../arm-none-eabi/lib/thumb/armv7-m\libc.a(lib_a-fopen.o)
                0x080135cc                _fopen_r
                0x08013680                fopen
 .text          0x080136a8      0x3f0 d:/research/pwc/arccore/com.arccore.a4.arm.bundle-win32.win32.x86_64/msys/opt/arm-none-eabi/bin/../lib/gcc/arm-none-eabi/4.8.2/../../../../arm-none-eabi/lib/thumb/armv7-m\libc.a(lib_a-fseek.o)
                0x080136a8                _fseek_r
                0x08013a6c                fseek
 .text          0x08013a98       0x50 d:/research/pwc/arccore/com.arccore.a4.arm.bundle-win32.win32.x86_64/msys/opt/arm-none-eabi/bin/../lib/gcc/arm-none-eabi/4.8.2/../../../../arm-none-eabi/lib/thumb/armv7-m\libc.a(lib_a-fstatr.o)
                0x08013a98                _fstat_r
 .text          0x08013ae8        0x0 d:/research/pwc/arccore/com.arccore.a4.arm.bundle-win32.win32.x86_64/msys/opt/arm-none-eabi/bin/../lib/gcc/arm-none-eabi/4.8.2/../../../../arm-none-eabi/lib/thumb/armv7-m\libc.a(lib_a-impure.o)
 .text          0x08013ae8      0x138 d:/research/pwc/arccore/com.arccore.a4.arm.bundle-win32.win32.x86_64/msys/opt/arm-none-eabi/bin/../lib/gcc/arm-none-eabi/4.8.2/../../../../arm-none-eabi/lib/thumb/armv7-m\libc.a(lib_a-makebuf.o)
                0x08013ae8                __smakebuf_r
 .text          0x08013c20       0x44 d:/research/pwc/arccore/com.arccore.a4.arm.bundle-win32.win32.x86_64/msys/opt/arm-none-eabi/bin/../lib/gcc/arm-none-eabi/4.8.2/../../../../arm-none-eabi/lib/thumb/armv7-m\libc.a(lib_a-malloc.o)
                0x08013c20                malloc
                0x08013c44                free
 .text          0x08013c64      0x8f8 d:/research/pwc/arccore/com.arccore.a4.arm.bundle-win32.win32.x86_64/msys/opt/arm-none-eabi/bin/../lib/gcc/arm-none-eabi/4.8.2/../../../../arm-none-eabi/lib/thumb/armv7-m\libc.a(lib_a-mallocr.o)
                0x08013eec                _malloc_r
 .text          0x0801455c       0xa4 d:/research/pwc/arccore/com.arccore.a4.arm.bundle-win32.win32.x86_64/msys/opt/arm-none-eabi/bin/../lib/gcc/arm-none-eabi/4.8.2/../../../../arm-none-eabi/lib/thumb/armv7-m\libc.a(lib_a-memcmp.o)
                0x0801455c                memcmp
 .text          0x08014600       0xd0 d:/research/pwc/arccore/com.arccore.a4.arm.bundle-win32.win32.x86_64/msys/opt/arm-none-eabi/bin/../lib/gcc/arm-none-eabi/4.8.2/../../../../arm-none-eabi/lib/thumb/armv7-m\libc.a(lib_a-memcpy-stub.o)
                0x08014600                memcpy
 .text          0x080146d0       0xf8 d:/research/pwc/arccore/com.arccore.a4.arm.bundle-win32.win32.x86_64/msys/opt/arm-none-eabi/bin/../lib/gcc/arm-none-eabi/4.8.2/../../../../arm-none-eabi/lib/thumb/armv7-m\libc.a(lib_a-memset.o)
                0x080146d0                memset
 .text          0x080147c8       0x28 d:/research/pwc/arccore/com.arccore.a4.arm.bundle-win32.win32.x86_64/msys/opt/arm-none-eabi/bin/../lib/gcc/arm-none-eabi/4.8.2/../../../../arm-none-eabi/lib/thumb/armv7-m\libc.a(lib_a-mlock.o)
                0x080147c8                __malloc_lock
                0x080147dc                __malloc_unlock
 .text          0x080147f0       0x54 d:/research/pwc/arccore/com.arccore.a4.arm.bundle-win32.win32.x86_64/msys/opt/arm-none-eabi/bin/../lib/gcc/arm-none-eabi/4.8.2/../../../../arm-none-eabi/lib/thumb/armv7-m\libc.a(lib_a-openr.o)
                0x080147f0                _open_r
 .text          0x08014844      0x17c d:/research/pwc/arccore/com.arccore.a4.arm.bundle-win32.win32.x86_64/msys/opt/arm-none-eabi/bin/../lib/gcc/arm-none-eabi/4.8.2/../../../../arm-none-eabi/lib/thumb/armv7-m\libc.a(lib_a-reent.o)
                0x08014844                cleanup_glue
                0x08014870                _reclaim_reent
                0x08014970                _wrapup_reent
 .text          0x080149c0      0x1b8 d:/research/pwc/arccore/com.arccore.a4.arm.bundle-win32.win32.x86_64/msys/opt/arm-none-eabi/bin/../lib/gcc/arm-none-eabi/4.8.2/../../../../arm-none-eabi/lib/thumb/armv7-m\libc.a(lib_a-refill.o)
                0x080149ec                __srefill_r
 .text          0x08014b78       0x4c d:/research/pwc/arccore/com.arccore.a4.arm.bundle-win32.win32.x86_64/msys/opt/arm-none-eabi/bin/../lib/gcc/arm-none-eabi/4.8.2/../../../../arm-none-eabi/lib/thumb/armv7-m\libc.a(lib_a-sbrkr.o)
                0x08014b78                _sbrk_r
 .text          0x08014bc4      0x27c d:/research/pwc/arccore/com.arccore.a4.arm.bundle-win32.win32.x86_64/msys/opt/arm-none-eabi/bin/../lib/gcc/arm-none-eabi/4.8.2/../../../../arm-none-eabi/lib/thumb/armv7-m\libc.a(lib_a-signal.o)
                0x08014bc4                _init_signal_r
                0x08014c24                _signal_r
                0x08014c90                _raise_r
                0x08014d2c                __sigtramp_r
                0x08014db4                raise
                0x08014dd8                signal
                0x08014e00                _init_signal
                0x08014e1c                __sigtramp
 .text          0x08014e40       0x68 d:/research/pwc/arccore/com.arccore.a4.arm.bundle-win32.win32.x86_64/msys/opt/arm-none-eabi/bin/../lib/gcc/arm-none-eabi/4.8.2/../../../../arm-none-eabi/lib/thumb/armv7-m\libc.a(lib_a-signalr.o)
                0x08014e40                _kill_r
                0x08014e90                _getpid_r
 .text          0x08014ea8      0x128 d:/research/pwc/arccore/com.arccore.a4.arm.bundle-win32.win32.x86_64/msys/opt/arm-none-eabi/bin/../lib/gcc/arm-none-eabi/4.8.2/../../../../arm-none-eabi/lib/thumb/armv7-m\libc.a(lib_a-stdio.o)
                0x08014ea8                __sread
                0x08014eec                __seofread
                0x08014f08                __swrite
                0x08014f5c                __sseek
                0x08014fa8                __sclose
 .text          0x08014fd0      0x1e0 d:/research/pwc/arccore/com.arccore.a4.arm.bundle-win32.win32.x86_64/msys/opt/arm-none-eabi/bin/../lib/gcc/arm-none-eabi/4.8.2/../../../../arm-none-eabi/lib/thumb/armv7-m\libc.a(lib_a-strcmp.o)
                0x08014fd0                strcmp
 .text          0x080151b0       0xbc d:/research/pwc/arccore/com.arccore.a4.arm.bundle-win32.win32.x86_64/msys/opt/arm-none-eabi/bin/../lib/gcc/arm-none-eabi/4.8.2/../../../../arm-none-eabi/lib/thumb/armv7-m\libc.a(lib_a-strcpy.o)
                0x080151b0                strcpy
 .text          0x0801526c       0x60 d:/research/pwc/arccore/com.arccore.a4.arm.bundle-win32.win32.x86_64/msys/opt/arm-none-eabi/bin/../lib/gcc/arm-none-eabi/4.8.2/../../../../arm-none-eabi/lib/thumb/armv7-m\libc.a(lib_a-strlen.o)
                0x0801526c                strlen
 .text          0x080152cc       0xbc d:/research/pwc/arccore/com.arccore.a4.arm.bundle-win32.win32.x86_64/msys/opt/arm-none-eabi/bin/../lib/gcc/arm-none-eabi/4.8.2/../../../../arm-none-eabi/lib/thumb/armv7-m\libc.a(lib_a-strncpy.o)
                0x080152cc                strncpy
 .text          0x08015388      0x1b4 d:/research/pwc/arccore/com.arccore.a4.arm.bundle-win32.win32.x86_64/msys/opt/arm-none-eabi/bin/../lib/gcc/arm-none-eabi/4.8.2/../../../../arm-none-eabi/lib/thumb/armv7-m\libc.a(lib_a-strtoul.o)
                0x08015388                _strtoul_r
                0x08015510                strtoul
 .text          0x0801553c       0x2c d:/research/pwc/arccore/com.arccore.a4.arm.bundle-win32.win32.x86_64/msys/opt/arm-none-eabi/bin/../lib/gcc/arm-none-eabi/4.8.2/../../../../arm-none-eabi/lib/thumb/armv7-m\libc.a(lib_a-sysread.o)
                0x0801553c                read
 .text          0x08015568       0x2c d:/research/pwc/arccore/com.arccore.a4.arm.bundle-win32.win32.x86_64/msys/opt/arm-none-eabi/bin/../lib/gcc/arm-none-eabi/4.8.2/../../../../arm-none-eabi/lib/thumb/armv7-m\libc.a(lib_a-syswrite.o)
                0x08015568                write
 .text          0x08015594       0x54 d:/research/pwc/arccore/com.arccore.a4.arm.bundle-win32.win32.x86_64/msys/opt/arm-none-eabi/bin/../lib/gcc/arm-none-eabi/4.8.2/../../../../arm-none-eabi/lib/thumb/armv7-m\libc.a(lib_a-writer.o)
                0x08015594                _write_r
 .text          0x080155e8       0x4c d:/research/pwc/arccore/com.arccore.a4.arm.bundle-win32.win32.x86_64/msys/opt/arm-none-eabi/bin/../lib/gcc/arm-none-eabi/4.8.2/../../../../arm-none-eabi/lib/thumb/armv7-m\libc.a(lib_a-closer.o)
                0x080155e8                _close_r
 .text          0x08015634        0x0 d:/research/pwc/arccore/com.arccore.a4.arm.bundle-win32.win32.x86_64/msys/opt/arm-none-eabi/bin/../lib/gcc/arm-none-eabi/4.8.2/../../../../arm-none-eabi/lib/thumb/armv7-m\libc.a(lib_a-ctype_.o)
 .text          0x08015634      0x24c d:/research/pwc/arccore/com.arccore.a4.arm.bundle-win32.win32.x86_64/msys/opt/arm-none-eabi/bin/../lib/gcc/arm-none-eabi/4.8.2/../../../../arm-none-eabi/lib/thumb/armv7-m\libc.a(lib_a-fflush.o)
                0x08015634                __sflush_r
                0x08015804                _fflush_r
                0x08015840                fflush
 .text          0x08015880      0x35c d:/research/pwc/arccore/com.arccore.a4.arm.bundle-win32.win32.x86_64/msys/opt/arm-none-eabi/bin/../lib/gcc/arm-none-eabi/4.8.2/../../../../arm-none-eabi/lib/thumb/armv7-m\libc.a(lib_a-findfp.o)
                0x08015914                __sfmoreglue
                0x08015970                __sfp
                0x08015a7c                _cleanup_r
                0x08015a98                _cleanup
                0x08015ab0                __sinit
                0x08015b34                __sfp_lock_acquire
                0x08015b40                __sfp_lock_release
                0x08015b4c                __sinit_lock_acquire
                0x08015b58                __sinit_lock_release
                0x08015b94                __fp_lock_all
                0x08015bb8                __fp_unlock_all
 .text          0x08015bdc       0x98 d:/research/pwc/arccore/com.arccore.a4.arm.bundle-win32.win32.x86_64/msys/opt/arm-none-eabi/bin/../lib/gcc/arm-none-eabi/4.8.2/../../../../arm-none-eabi/lib/thumb/armv7-m\libc.a(lib_a-flags.o)
                0x08015bdc                __sflags
 .text          0x08015c74      0x434 d:/research/pwc/arccore/com.arccore.a4.arm.bundle-win32.win32.x86_64/msys/opt/arm-none-eabi/bin/../lib/gcc/arm-none-eabi/4.8.2/../../../../arm-none-eabi/lib/thumb/armv7-m\libc.a(lib_a-freer.o)
                0x08015c74                _free_r
                0x08015f80                _malloc_trim_r
 .text          0x080160a8       0xc8 d:/research/pwc/arccore/com.arccore.a4.arm.bundle-win32.win32.x86_64/msys/opt/arm-none-eabi/bin/../lib/gcc/arm-none-eabi/4.8.2/../../../../arm-none-eabi/lib/thumb/armv7-m\libc.a(lib_a-fwalk.o)
                0x080160a8                _fwalk
                0x0801610c                _fwalk_reent
 .text          0x08016170       0x4c d:/research/pwc/arccore/com.arccore.a4.arm.bundle-win32.win32.x86_64/msys/opt/arm-none-eabi/bin/../lib/gcc/arm-none-eabi/4.8.2/../../../../arm-none-eabi/lib/thumb/armv7-m\libc.a(lib_a-isattyr.o)
                0x08016170                _isatty_r
 .text          0x080161bc       0x54 d:/research/pwc/arccore/com.arccore.a4.arm.bundle-win32.win32.x86_64/msys/opt/arm-none-eabi/bin/../lib/gcc/arm-none-eabi/4.8.2/../../../../arm-none-eabi/lib/thumb/armv7-m\libc.a(lib_a-lseekr.o)
                0x080161bc                _lseek_r
 .text          0x08016210       0x54 d:/research/pwc/arccore/com.arccore.a4.arm.bundle-win32.win32.x86_64/msys/opt/arm-none-eabi/bin/../lib/gcc/arm-none-eabi/4.8.2/../../../../arm-none-eabi/lib/thumb/armv7-m\libc.a(lib_a-readr.o)
                0x08016210                _read_r
 .text          0x08016264       0xd4 d:/research/pwc/arccore/com.arccore.a4.arm.bundle-win32.win32.x86_64/msys/opt/arm-none-eabi/bin/../lib/gcc/arm-none-eabi/4.8.2/../../../../arm-none-eabi/lib/thumb/armv7-m\libc.a(lib_a-fclose.o)
                0x08016264                _fclose_r
                0x08016318                fclose
 *(.glue_7)
 .glue_7        0x00000000        0x0 linker stubs
 *(.glue_7t)
 .glue_7t       0x00000000        0x0 linker stubs
                0x08016338                PROVIDE (btask_sup_matrix, .)
 SORT(*)(.test_btask)
                0x08016338                PROVIDE (etask_sup_matrix, .)
 SORT(*)(.test_etask)
                0x08016338                . = ALIGN (0x4)
                0x08016338                _etext = .

.vfp11_veneer   0x08016338        0x0
 .vfp11_veneer  0x00000000        0x0 linker stubs

.v4_bx          0x08016338        0x0
 .v4_bx         0x00000000        0x0 linker stubs

.iplt           0x08016338        0x0
 .iplt          0x00000000        0x0 Rte.o

.fls_rom        0x08016338        0x0
                0x08016338                __FLS_ERASE_ROM__ = .
 *(.fls_erase)
                0x08016338                __FLS_WRITE_ROM__ = .
 *(.fls_write)
                0x08016338                __FLS_END_ROM__ = .

.ARM.exidx
 *(.ARM.exidx* .gnu.linkonce.armexidx.*)
                0x08016338                __exidx_start = .

.rodata         0x08016338      0x654
                0x08016338                . = ALIGN (0x4)
 *(.rodata .rodata.* .gnu.linkonce.r.*)
 .rodata        0x08016338        0x8 Rte_EndStopDtcType.o
                0x08016338                EndStopDtcType_EndStopDtc
                0x0801633c                Rte_Inst_EndStopDtcType
 .rodata        0x08016340        0x8 Rte_IoHwAb.o
                0x08016340                IoHwAb_ioHwAb
                0x08016344                Rte_Inst_IoHwAb
 .rodata        0x08016348        0x8 Rte_MotorDriverType.o
                0x08016348                MotorDriverType_MotorDriver
                0x0801634c                Rte_Inst_MotorDriverType
 .rodata        0x08016350        0x8 Rte_ObstacleDtcType.o
                0x08016350                ObstacleDtcType_ObstacleDtc
                0x08016354                Rte_Inst_ObstacleDtcType
 .rodata        0x08016358        0x8 Rte_SwitchType.o
                0x08016358                SwitchType_Switch
                0x0801635c                Rte_Inst_SwitchType
 .rodata        0x08016360       0x10 Rte_WinArbitratorType.o
                0x08016360                WinArbitratorType_WinArbitrator
                0x0801636c                Rte_Inst_WinArbitratorType
 .rodata        0x08016370       0x14 Rte_WinControllerType.o
                0x08016370                WinControllerType_WinController
                0x08016380                Rte_Inst_WinControllerType
 .rodata        0x08016384       0x60 stm3210c_eval.o
                0x08016384                GPIO_PIN
                0x0801638c                GPIO_CLK
                0x0801639c                BUTTON_PIN
                0x080163a4                BUTTON_CLK
                0x080163b0                BUTTON_EXTI_LINE
                0x080163b8                BUTTON_PORT_SOURCE
                0x080163c0                BUTTON_PIN_SOURCE
                0x080163c8                BUTTON_IRQn
                0x080163d0                COM_USART_CLK
                0x080163d4                COM_TX_PORT_CLK
                0x080163d8                COM_RX_PORT_CLK
                0x080163dc                COM_TX_PIN
                0x080163e0                COM_RX_PIN
 .rodata        0x080163e4      0x1d0 Os_Cfg.o
                0x080163e4                OsTickFreq
                0x080163f8                Os_AppConst
                0x08016414                Os_AlarmAutoStart_ALARM_ID_Alarm_Main
                0x08016424                Os_AlarmAutoStart_ALARM_ID_StepAlarm
                0x08016434                Os_AlarmAutoStart_ALARM_ID_CriticalAlarm
                0x0801649c                Os_TaskConstList
                0x0801659c                os_conf_global_hooks
 *fill*         0x080165b4        0x4 
 .rodata        0x080165b8       0x60 EcuM_PBcfg.o
                0x080165b8                EcuM_SleepModeConfig
                0x080165c4                EcuM_WakeupSourceConfig
                0x080165d0                EcuMConfig
 .rodata        0x08016618       0x20 EcuM_PBHeader.o
                0x08016618                Postbuild_Config
 .rodata        0x08016638       0x14 Mcu.o
 .rodata        0x0801664c       0x24 Mcu_PBcfg.o
                0x0801664c                Mcu_ClockSettingConfigData
                0x08016658                McuPerClockConfigData
                0x08016664                McuConfigData
 .rodata        0x08016670       0x18 Dio.o
                0x08016670                GPIO_ports
 .rodata        0x08016688       0x50 Dio_Lcfg.o
                0x08016688                DioChannelConfigData
                0x080166b0                DioPortConfigData
                0x080166c4                DioGroupConfigData
                0x080166cc                DioConfigData
 .rodata        0x080166d8       0x5c Port_PBcfg.o
                0x080166d8                GPIOConf
                0x080166d8                remaps
                0x08016710                GPIOOutConf
                0x08016720                PortConfigData
 .rodata        0x08016734       0x10 os_resource.o
 .rodata        0x08016744       0x24 sys_tick.o
 .rodata        0x08016768        0xc Com_Cfg.o
                0x08016768                ComNotificationCallouts
                0x0801676c                ComRxIPduCallouts
                0x08016770                ComTxIPduCallouts
 .rodata        0x08016774       0xa4 Com_PbCfg.o
                0x08016774                ComGroupSignal
                0x08016784                ComSignal
                0x080167c0                ComIPduGroup
                0x080167c4                ComIPdu
                0x08016800                ComConfiguration
 .rodata        0x08016818       0x1c PduR_PbCfg.o
                0x08016818                PduRRoutingPaths
                0x0801681c                PduRTxBufferDefaultValues
                0x08016820                PduRTxBufferDefaultValueLengths
                0x08016824                PduR_Config
 .rodata        0x08016834       0x10 PduR_Cfg.o
                0x08016834                PduR_RamBufCfg
 .rodata        0x08016844        0x4 IoHwAb_Digital.o
                0x08016844                IoHwAb_MOTOR_1_Default
                0x08016845                IoHwAb_EndStop_Default
                0x08016846                IoHwAb_Obstacle_Default
                0x08016847                IoHwAb_MOTOR_2_Default
 .rodata        0x08016848        0xc ramlog.o
 .rodata        0x08016854       0x10 clib_port.o
 .rodata        0x08016864        0x8 printf.o
 .rodata        0x0801686c       0x14 xtoa.o
 .rodata        0x08016880        0x8 d:/research/pwc/arccore/com.arccore.a4.arm.bundle-win32.win32.x86_64/msys/opt/arm-none-eabi/bin/../lib/gcc/arm-none-eabi/4.8.2/../../../../arm-none-eabi/lib/thumb/armv7-m\libc.a(lib_a-impure.o)
                0x08016884                _global_impure_ptr
 .rodata        0x08016888      0x104 d:/research/pwc/arccore/com.arccore.a4.arm.bundle-win32.win32.x86_64/msys/opt/arm-none-eabi/bin/../lib/gcc/arm-none-eabi/4.8.2/../../../../arm-none-eabi/lib/thumb/armv7-m\libc.a(lib_a-ctype_.o)
                0x08016888                _ctype_
                0x0801698c                . = ALIGN (0x4)
                0x0801698c                _sidata = ALIGN (., 0x4)

.rel.dyn        0x0801698c        0x0
 .rel.iplt      0x00000000        0x0 Rte.o

.data           0x20000000      0xaa4 load address 0x0801698c
                0x20000000                . = ALIGN (0x4)
                0x20000000                _sdata = .
 *(.data .data.* .gnu.linkonce.d.* .gnu.linkonce.r.* .eh_frame)
 .data          0x20000000        0x0 Rte.o
 .data          0x20000000        0x0 Rte_Main.o
 .data          0x20000000        0x0 Rte_Calprms.o
 .data          0x20000000        0x0 Rte_Internal.o
 .data          0x20000000        0x0 Rte_Callbacks.o
 .data          0x20000000        0x0 Rte_Fifo.o
 .data          0x20000000        0x0 Rte_EndStopDtcType.o
 .data          0x20000000        0x0 Rte_IoHwAb.o
 .data          0x20000000        0x0 Rte_MotorDriverType.o
 .data          0x20000000        0x0 Rte_ObstacleDtcType.o
 .data          0x20000000        0x0 Rte_SwitchType.o
 .data          0x20000000        0x0 Rte_WinArbitratorType.o
 .data          0x20000000        0x0 Rte_WinControllerType.o
 .data          0x20000000        0x0 EndStopDtc.o
 .data          0x20000000        0x0 IoHwAb.o
 .data          0x20000000        0x0 MotorDriver.o
 .data          0x20000000        0x0 ObstacleDtc.o
 .data          0x20000000        0x0 Switch.o
 .data          0x20000000        0x0 Tasks.o
 .data          0x20000000        0x0 WinArbitrator.o
 .data          0x20000000        0x0 WinController.o
 .data          0x20000000       0x28 stm3210c_eval.o
                0x20000000                GPIO_PORT
                0x20000010                BUTTON_PORT
                0x2000001c                COM_USART
                0x20000020                COM_TX_PORT
                0x20000024                COM_RX_PORT
 .data          0x20000028        0x4 stm3210c_eval_ioe.o
                0x20000028                IOE_TimeOut
 .data          0x2000002c       0x14 system_stm32f10x.o
                0x2000002c                SystemCoreClock
                0x20000030                AHBPrescTable
 .data          0x20000040        0x0 misc.o
 .data          0x20000040        0x0 stm32f10x_exti.o
 .data          0x20000040        0x0 stm32f10x_usart.o
 .data          0x20000040        0x0 stm32f10x_i2c.o
 .data          0x20000040        0x0 stm32f10x_spi.o
 .data          0x20000040        0x0 stm32f10x_dma.o
 .data          0x20000040        0x0 core_cm3.o
 .data          0x20000040        0x0 startup_stm32f10x.o
 .data          0x20000040       0x14 stm32f10x_rcc.o
 .data          0x20000054       0xf0 Os_Cfg.o
                0x20000054                os_dbg_mask
                0x20000058                counter_list
                0x20000090                alarm_list
 .data          0x20000144        0x0 EcuM.o
 .data          0x20000144        0x0 EcuM_Fixed.o
 .data          0x20000144        0x0 EcuM_Main.o
 .data          0x20000144        0x0 EcuM_PBcfg.o
 .data          0x20000144        0x0 EcuM_PBHeader.o
 .data          0x20000144        0x0 EcuM_Callout_Stubs.o
 .data          0x20000144       0x1c Mcu.o
                0x20000144                Mcu_Global
                0x20000158                core_info_list
 .data          0x20000160        0x0 Mcu_LCfg.o
 .data          0x20000160        0x0 Mcu_PBcfg.o
 .data          0x20000160        0x0 Dio.o
 .data          0x20000160        0x0 Dio_Lcfg.o
 .data          0x20000160       0x44 Port.o
                0x20000160                GpioBaseAddr
                0x2000017c                GpioODRAddr
 .data          0x200001a4        0x0 Port_Lcfg.o
 .data          0x200001a4        0x0 Port_PBcfg.o
 .data          0x200001a4        0x0 arch_krn.o
 .data          0x200001a4        0x0 os_event.o
 .data          0x200001a4        0x0 os_init.o
 .data          0x200001a4        0x0 arch.o
 .data          0x200001a4        0x0 os_task.o
 .data          0x200001a4        0x0 os_resource.o
 .data          0x200001a4        0x0 os_alarm.o
 .data          0x200001a4        0x0 os_sched_table.o
 .data          0x200001a4        0x0 os_counter.o
 .data          0x200001a4        0x0 sys_tick.o
 .data          0x200001a4        0x0 os_isr.o
 .data          0x200001a4        0x0 os_arctest.o
 .data          0x200001a4        0x0 os_application.o
 .data          0x200001a4        0x0 irq.o
 .data          0x200001a4        0x0 Det.o
 .data          0x200001a4        0x0 Det_Cfg.o
 .data          0x200001a4        0x0 Com_Cfg.o
 .data          0x200001a4        0x0 Com_PbCfg.o
 .data          0x200001a4        0x0 Com_Com.o
 .data          0x200001a4        0x0 Com_Sched.o
 .data          0x200001a4        0xc Com.o
                0x200001a4                Com_Arc_Config
 .data          0x200001b0        0x0 Com_misc.o
 .data          0x200001b0        0x0 PduR_CanNm.o
 .data          0x200001b0        0x0 PduR_Com.o
 .data          0x200001b0        0x0 PduR_Logic.o
 .data          0x200001b0        0x0 PduR_LinIf.o
 .data          0x200001b0        0x0 PduR_PbCfg.o
 .data          0x200001b0        0xc PduR_Cfg.o
                0x200001b0                PduRTpBuffers
 .data          0x200001bc        0x0 PduR_CanIf.o
 .data          0x200001bc        0x0 PduR_CanTp.o
 .data          0x200001bc        0x0 PduR_J1939Tp.o
 .data          0x200001bc        0x0 PduR_IpduM.o
 .data          0x200001bc        0x0 PduR_Dcm.o
 .data          0x200001bc        0x0 PduR_SoAd.o
 .data          0x200001bc        0x0 PduR_Routing.o
 .data          0x200001bc        0x0 PduR.o
 .data          0x200001bc        0x0 IoHwAb_Digital.o
 .data          0x200001bc        0x0 IoHwAb_Analog.o
 .data          0x200001bc        0x0 IoHwAb_Pwm.o
 .data          0x200001bc       0x2c ramlog.o
                0x200001bc                Ramlog_Device
 .data          0x200001e8        0x0 cirq_buffer.o
 .data          0x200001e8       0x4c clib_port.o
                0x200001e8                Dummy_Device
                0x20000214                deviceList
                0x2000021c                fileList
 .data          0x20000234       0x28 clib.o
                0x20000234                stdFiles
                0x2000024c                __Env
                0x20000258                _EnvPtr
 .data          0x2000025c        0x0 printf.o
 .data          0x2000025c        0x0 xtoa.o
 .data          0x2000025c        0x0 stm32f10x_gpio.o
 .data          0x2000025c        0x0 d:/research/pwc/arccore/com.arccore.a4.arm.bundle-win32.win32.x86_64/msys/opt/arm-none-eabi/bin/../lib/gcc/arm-none-eabi/4.8.2/../../../../arm-none-eabi/lib/thumb/armv7-m\libc.a(lib_a-abort.o)
 .data          0x2000025c        0x0 d:/research/pwc/arccore/com.arccore.a4.arm.bundle-win32.win32.x86_64/msys/opt/arm-none-eabi/bin/../lib/gcc/arm-none-eabi/4.8.2/../../../../arm-none-eabi/lib/thumb/armv7-m\libc.a(lib_a-fopen.o)
 .data          0x2000025c        0x0 d:/research/pwc/arccore/com.arccore.a4.arm.bundle-win32.win32.x86_64/msys/opt/arm-none-eabi/bin/../lib/gcc/arm-none-eabi/4.8.2/../../../../arm-none-eabi/lib/thumb/armv7-m\libc.a(lib_a-fseek.o)
 .data          0x2000025c        0x0 d:/research/pwc/arccore/com.arccore.a4.arm.bundle-win32.win32.x86_64/msys/opt/arm-none-eabi/bin/../lib/gcc/arm-none-eabi/4.8.2/../../../../arm-none-eabi/lib/thumb/armv7-m\libc.a(lib_a-fstatr.o)
 *fill*         0x2000025c        0x4 
 .data          0x20000260      0x430 d:/research/pwc/arccore/com.arccore.a4.arm.bundle-win32.win32.x86_64/msys/opt/arm-none-eabi/bin/../lib/gcc/arm-none-eabi/4.8.2/../../../../arm-none-eabi/lib/thumb/armv7-m\libc.a(lib_a-impure.o)
                0x20000688                _impure_ptr
 .data          0x20000690        0x0 d:/research/pwc/arccore/com.arccore.a4.arm.bundle-win32.win32.x86_64/msys/opt/arm-none-eabi/bin/../lib/gcc/arm-none-eabi/4.8.2/../../../../arm-none-eabi/lib/thumb/armv7-m\libc.a(lib_a-makebuf.o)
 .data          0x20000690        0x0 d:/research/pwc/arccore/com.arccore.a4.arm.bundle-win32.win32.x86_64/msys/opt/arm-none-eabi/bin/../lib/gcc/arm-none-eabi/4.8.2/../../../../arm-none-eabi/lib/thumb/armv7-m\libc.a(lib_a-malloc.o)
 .data          0x20000690      0x410 d:/research/pwc/arccore/com.arccore.a4.arm.bundle-win32.win32.x86_64/msys/opt/arm-none-eabi/bin/../lib/gcc/arm-none-eabi/4.8.2/../../../../arm-none-eabi/lib/thumb/armv7-m\libc.a(lib_a-mallocr.o)
                0x20000690                __malloc_av_
                0x20000a98                __malloc_trim_threshold
                0x20000a9c                __malloc_sbrk_base
 .data          0x20000aa0        0x0 d:/research/pwc/arccore/com.arccore.a4.arm.bundle-win32.win32.x86_64/msys/opt/arm-none-eabi/bin/../lib/gcc/arm-none-eabi/4.8.2/../../../../arm-none-eabi/lib/thumb/armv7-m\libc.a(lib_a-memcmp.o)
 .data          0x20000aa0        0x0 d:/research/pwc/arccore/com.arccore.a4.arm.bundle-win32.win32.x86_64/msys/opt/arm-none-eabi/bin/../lib/gcc/arm-none-eabi/4.8.2/../../../../arm-none-eabi/lib/thumb/armv7-m\libc.a(lib_a-memcpy-stub.o)
 .data          0x20000aa0        0x0 d:/research/pwc/arccore/com.arccore.a4.arm.bundle-win32.win32.x86_64/msys/opt/arm-none-eabi/bin/../lib/gcc/arm-none-eabi/4.8.2/../../../../arm-none-eabi/lib/thumb/armv7-m\libc.a(lib_a-memset.o)
 .data          0x20000aa0        0x0 d:/research/pwc/arccore/com.arccore.a4.arm.bundle-win32.win32.x86_64/msys/opt/arm-none-eabi/bin/../lib/gcc/arm-none-eabi/4.8.2/../../../../arm-none-eabi/lib/thumb/armv7-m\libc.a(lib_a-mlock.o)
 .data          0x20000aa0        0x0 d:/research/pwc/arccore/com.arccore.a4.arm.bundle-win32.win32.x86_64/msys/opt/arm-none-eabi/bin/../lib/gcc/arm-none-eabi/4.8.2/../../../../arm-none-eabi/lib/thumb/armv7-m\libc.a(lib_a-openr.o)
 .data          0x20000aa0        0x0 d:/research/pwc/arccore/com.arccore.a4.arm.bundle-win32.win32.x86_64/msys/opt/arm-none-eabi/bin/../lib/gcc/arm-none-eabi/4.8.2/../../../../arm-none-eabi/lib/thumb/armv7-m\libc.a(lib_a-reent.o)
 .data          0x20000aa0        0x0 d:/research/pwc/arccore/com.arccore.a4.arm.bundle-win32.win32.x86_64/msys/opt/arm-none-eabi/bin/../lib/gcc/arm-none-eabi/4.8.2/../../../../arm-none-eabi/lib/thumb/armv7-m\libc.a(lib_a-refill.o)
 .data          0x20000aa0        0x0 d:/research/pwc/arccore/com.arccore.a4.arm.bundle-win32.win32.x86_64/msys/opt/arm-none-eabi/bin/../lib/gcc/arm-none-eabi/4.8.2/../../../../arm-none-eabi/lib/thumb/armv7-m\libc.a(lib_a-sbrkr.o)
 .data          0x20000aa0        0x0 d:/research/pwc/arccore/com.arccore.a4.arm.bundle-win32.win32.x86_64/msys/opt/arm-none-eabi/bin/../lib/gcc/arm-none-eabi/4.8.2/../../../../arm-none-eabi/lib/thumb/armv7-m\libc.a(lib_a-signal.o)
 .data          0x20000aa0        0x0 d:/research/pwc/arccore/com.arccore.a4.arm.bundle-win32.win32.x86_64/msys/opt/arm-none-eabi/bin/../lib/gcc/arm-none-eabi/4.8.2/../../../../arm-none-eabi/lib/thumb/armv7-m\libc.a(lib_a-signalr.o)
 .data          0x20000aa0        0x0 d:/research/pwc/arccore/com.arccore.a4.arm.bundle-win32.win32.x86_64/msys/opt/arm-none-eabi/bin/../lib/gcc/arm-none-eabi/4.8.2/../../../../arm-none-eabi/lib/thumb/armv7-m\libc.a(lib_a-stdio.o)
 .data          0x20000aa0        0x0 d:/research/pwc/arccore/com.arccore.a4.arm.bundle-win32.win32.x86_64/msys/opt/arm-none-eabi/bin/../lib/gcc/arm-none-eabi/4.8.2/../../../../arm-none-eabi/lib/thumb/armv7-m\libc.a(lib_a-strcmp.o)
 .data          0x20000aa0        0x0 d:/research/pwc/arccore/com.arccore.a4.arm.bundle-win32.win32.x86_64/msys/opt/arm-none-eabi/bin/../lib/gcc/arm-none-eabi/4.8.2/../../../../arm-none-eabi/lib/thumb/armv7-m\libc.a(lib_a-strcpy.o)
 .data          0x20000aa0        0x0 d:/research/pwc/arccore/com.arccore.a4.arm.bundle-win32.win32.x86_64/msys/opt/arm-none-eabi/bin/../lib/gcc/arm-none-eabi/4.8.2/../../../../arm-none-eabi/lib/thumb/armv7-m\libc.a(lib_a-strlen.o)
 .data          0x20000aa0        0x0 d:/research/pwc/arccore/com.arccore.a4.arm.bundle-win32.win32.x86_64/msys/opt/arm-none-eabi/bin/../lib/gcc/arm-none-eabi/4.8.2/../../../../arm-none-eabi/lib/thumb/armv7-m\libc.a(lib_a-strncpy.o)
 .data          0x20000aa0        0x0 d:/research/pwc/arccore/com.arccore.a4.arm.bundle-win32.win32.x86_64/msys/opt/arm-none-eabi/bin/../lib/gcc/arm-none-eabi/4.8.2/../../../../arm-none-eabi/lib/thumb/armv7-m\libc.a(lib_a-strtoul.o)
 .data          0x20000aa0        0x0 d:/research/pwc/arccore/com.arccore.a4.arm.bundle-win32.win32.x86_64/msys/opt/arm-none-eabi/bin/../lib/gcc/arm-none-eabi/4.8.2/../../../../arm-none-eabi/lib/thumb/armv7-m\libc.a(lib_a-sysread.o)
 .data          0x20000aa0        0x0 d:/research/pwc/arccore/com.arccore.a4.arm.bundle-win32.win32.x86_64/msys/opt/arm-none-eabi/bin/../lib/gcc/arm-none-eabi/4.8.2/../../../../arm-none-eabi/lib/thumb/armv7-m\libc.a(lib_a-syswrite.o)
 .data          0x20000aa0        0x0 d:/research/pwc/arccore/com.arccore.a4.arm.bundle-win32.win32.x86_64/msys/opt/arm-none-eabi/bin/../lib/gcc/arm-none-eabi/4.8.2/../../../../arm-none-eabi/lib/thumb/armv7-m\libc.a(lib_a-writer.o)
 .data          0x20000aa0        0x0 d:/research/pwc/arccore/com.arccore.a4.arm.bundle-win32.win32.x86_64/msys/opt/arm-none-eabi/bin/../lib/gcc/arm-none-eabi/4.8.2/../../../../arm-none-eabi/lib/thumb/armv7-m\libc.a(lib_a-closer.o)
 .data          0x20000aa0        0x4 d:/research/pwc/arccore/com.arccore.a4.arm.bundle-win32.win32.x86_64/msys/opt/arm-none-eabi/bin/../lib/gcc/arm-none-eabi/4.8.2/../../../../arm-none-eabi/lib/thumb/armv7-m\libc.a(lib_a-ctype_.o)
                0x20000aa0                __ctype_ptr__
 .data          0x20000aa4        0x0 d:/research/pwc/arccore/com.arccore.a4.arm.bundle-win32.win32.x86_64/msys/opt/arm-none-eabi/bin/../lib/gcc/arm-none-eabi/4.8.2/../../../../arm-none-eabi/lib/thumb/armv7-m\libc.a(lib_a-fflush.o)
 .data          0x20000aa4        0x0 d:/research/pwc/arccore/com.arccore.a4.arm.bundle-win32.win32.x86_64/msys/opt/arm-none-eabi/bin/../lib/gcc/arm-none-eabi/4.8.2/../../../../arm-none-eabi/lib/thumb/armv7-m\libc.a(lib_a-findfp.o)
 .data          0x20000aa4        0x0 d:/research/pwc/arccore/com.arccore.a4.arm.bundle-win32.win32.x86_64/msys/opt/arm-none-eabi/bin/../lib/gcc/arm-none-eabi/4.8.2/../../../../arm-none-eabi/lib/thumb/armv7-m\libc.a(lib_a-flags.o)
 .data          0x20000aa4        0x0 d:/research/pwc/arccore/com.arccore.a4.arm.bundle-win32.win32.x86_64/msys/opt/arm-none-eabi/bin/../lib/gcc/arm-none-eabi/4.8.2/../../../../arm-none-eabi/lib/thumb/armv7-m\libc.a(lib_a-freer.o)
 .data          0x20000aa4        0x0 d:/research/pwc/arccore/com.arccore.a4.arm.bundle-win32.win32.x86_64/msys/opt/arm-none-eabi/bin/../lib/gcc/arm-none-eabi/4.8.2/../../../../arm-none-eabi/lib/thumb/armv7-m\libc.a(lib_a-fwalk.o)
 .data          0x20000aa4        0x0 d:/research/pwc/arccore/com.arccore.a4.arm.bundle-win32.win32.x86_64/msys/opt/arm-none-eabi/bin/../lib/gcc/arm-none-eabi/4.8.2/../../../../arm-none-eabi/lib/thumb/armv7-m\libc.a(lib_a-isattyr.o)
 .data          0x20000aa4        0x0 d:/research/pwc/arccore/com.arccore.a4.arm.bundle-win32.win32.x86_64/msys/opt/arm-none-eabi/bin/../lib/gcc/arm-none-eabi/4.8.2/../../../../arm-none-eabi/lib/thumb/armv7-m\libc.a(lib_a-lseekr.o)
 .data          0x20000aa4        0x0 d:/research/pwc/arccore/com.arccore.a4.arm.bundle-win32.win32.x86_64/msys/opt/arm-none-eabi/bin/../lib/gcc/arm-none-eabi/4.8.2/../../../../arm-none-eabi/lib/thumb/armv7-m\libc.a(lib_a-readr.o)
 .data          0x20000aa4        0x0 d:/research/pwc/arccore/com.arccore.a4.arm.bundle-win32.win32.x86_64/msys/opt/arm-none-eabi/bin/../lib/gcc/arm-none-eabi/4.8.2/../../../../arm-none-eabi/lib/thumb/armv7-m\libc.a(lib_a-fclose.o)
                0x20000aa4                . = ALIGN (0x4)
                0x20000aa4                _edata = .

.igot.plt       0x20000aa4        0x0 load address 0x08017430
 .igot.plt      0x00000000        0x0 Rte.o

.t32_outport
 *(.t32_outport)

.bss            0x20000ab0     0x6924 load address 0x08017440
                0x20000ab0                . = ALIGN (0x4)
                0x20000ab0                _sbss = .
 *(.bss .bss.* COMMON .gnu.linkonce.b.*)
 .bss           0x20000ab0        0x0 Rte.o
 .bss           0x20000ab0        0x0 Rte_Main.o
 .bss           0x20000ab0        0x0 Rte_Calprms.o
 .bss           0x20000ab0        0x1 Rte_Internal.o
                0x20000ab0                RteInitialized
 COMMON         0x20000ab1        0x5 Rte_Internal.o
                0x20000ab1                Rte_Buffer_MotorDriver_cmd_command
                0x20000ab2                Rte_Buffer_WinController_endStop_isPresent
                0x20000ab3                Rte_Buffer_WinArbitrator_req_d_request
                0x20000ab4                Rte_Buffer_WinController_req_request
                0x20000ab5                Rte_Buffer_WinController_obstacle_isPresent
 .bss           0x20000ab6        0x0 Rte_Callbacks.o
 .bss           0x20000ab6        0x0 Rte_Fifo.o
 .bss           0x20000ab6        0x0 Rte_EndStopDtcType.o
 *fill*         0x20000ab6        0x2 
 COMMON         0x20000ab8        0x1 Rte_EndStopDtcType.o
                0x20000ab8                ImplDE_EndStopDtc
 .bss           0x20000ab9        0x0 Rte_IoHwAb.o
 .bss           0x20000ab9        0x0 Rte_MotorDriverType.o
 *fill*         0x20000ab9        0x3 
 COMMON         0x20000abc        0x1 Rte_MotorDriverType.o
                0x20000abc                ImplDE_MotorDriver
 .bss           0x20000abd        0x0 Rte_ObstacleDtcType.o
 *fill*         0x20000abd        0x3 
 COMMON         0x20000ac0        0x1 Rte_ObstacleDtcType.o
                0x20000ac0                ImplDE_ObstacleDtc
 .bss           0x20000ac1        0x0 Rte_SwitchType.o
 *fill*         0x20000ac1        0x3 
 COMMON         0x20000ac4        0x1 Rte_SwitchType.o
                0x20000ac4                ImplDE_Switch
 .bss           0x20000ac5        0x0 Rte_WinArbitratorType.o
 *fill*         0x20000ac5        0x3 
 COMMON         0x20000ac8        0x3 Rte_WinArbitratorType.o
                0x20000ac8                ImplDE_WinArbitrator
 .bss           0x20000acb        0x0 Rte_WinControllerType.o
 *fill*         0x20000acb        0x1 
 COMMON         0x20000acc        0x4 Rte_WinControllerType.o
                0x20000acc                ImplDE_WinController
 .bss           0x20000ad0        0x0 EndStopDtc.o
 .bss           0x20000ad0        0x0 IoHwAb.o
 .bss           0x20000ad0        0x0 MotorDriver.o
 .bss           0x20000ad0        0x0 ObstacleDtc.o
 .bss           0x20000ad0        0x1 Switch.o
 *fill*         0x20000ad1        0x3 
 .bss           0x20000ad4      0x144 Tasks.o
 .bss           0x20000c18        0x4 WinArbitrator.o
                0x20000c18                PWC_B
 .bss           0x20000c1c        0x8 WinController.o
                0x20000c1c                PWC_DW
 .bss           0x20000c24        0x0 stm3210c_eval.o
 COMMON         0x20000c24       0x2c stm3210c_eval.o
                0x20000c24                sEEDMA_InitStructure
 .bss           0x20000c50        0xc stm3210c_eval_ioe.o
 COMMON         0x20000c5c        0x8 stm3210c_eval_ioe.o
                0x20000c5c                TS_State
 .bss           0x20000c64        0x0 system_stm32f10x.o
 .bss           0x20000c64        0x0 misc.o
 .bss           0x20000c64        0x0 stm32f10x_exti.o
 .bss           0x20000c64        0x0 stm32f10x_usart.o
 .bss           0x20000c64        0x0 stm32f10x_i2c.o
 .bss           0x20000c64        0x0 stm32f10x_spi.o
 .bss           0x20000c64        0x0 stm32f10x_dma.o
 .bss           0x20000c64        0x0 core_cm3.o
 .bss           0x20000c64        0x0 startup_stm32f10x.o
 .bss           0x20000c64        0x0 stm32f10x_rcc.o
 .bss           0x20000c64       0x58 Os_Cfg.o
                0x20000c64                Os_Arc_OsTickCounter
                0x20000c68                Os_VectorToIsr
 *fill*         0x20000cbc        0x4 
 COMMON         0x20000cc0     0x1a00 Os_Cfg.o
                0x20000cc0                stack_CriticalTask
                0x200014c0                stack_OsTask_Main
                0x20001cc0                stack_StepTask
                0x200024c0                stack_OsIdle
 .bss           0x200026c0        0x0 EcuM.o
 COMMON         0x200026c0       0x34 EcuM.o
                0x200026c0                EcuM_World
 .bss           0x200026f4        0x0 EcuM_Fixed.o
 .bss           0x200026f4       0x10 EcuM_Main.o
 .bss           0x20002704        0x0 EcuM_PBcfg.o
 .bss           0x20002704        0x0 EcuM_PBHeader.o
 .bss           0x20002704        0x1 EcuM_Callout_Stubs.o
 .bss           0x20002705        0x0 Mcu.o
 .bss           0x20002705        0x0 Mcu_LCfg.o
 .bss           0x20002705        0x0 Mcu_PBcfg.o
 *fill*         0x20002705        0x3 
 .bss           0x20002708        0x8 Dio.o
 .bss           0x20002710        0x0 Dio_Lcfg.o
 .bss           0x20002710        0xc Port.o
 .bss           0x2000271c        0x0 Port_Lcfg.o
 .bss           0x2000271c        0x0 Port_PBcfg.o
 .bss           0x2000271c        0x0 arch_krn.o
 .bss           0x2000271c        0x0 os_event.o
 .bss           0x2000271c        0xc os_init.o
                0x2000271c                beforeStartHooks
                0x20002720                afterStartHooks
                0x20002724                afterIsrSetup
 COMMON         0x20002728       0x6d os_init.o
                0x20002728                os_error
                0x20002738                Os_IntSuspendAllCnt
                0x20002739                Os_IntDisableAllCnt
                0x2000273c                Os_Sys
                0x20002794                Os_IntSuspendOsCnt
 .bss           0x20002795        0x0 arch.o
 .bss           0x20002795        0x0 os_task.o
 *fill*         0x20002795        0x3 
 COMMON         0x20002798      0x220 os_task.o
                0x20002798                Os_TaskVarList
 .bss           0x200029b8        0x0 os_resource.o
 COMMON         0x200029b8       0x30 os_resource.o
                0x200029b8                resScheduler
 .bss           0x200029e8        0x0 os_alarm.o
 .bss           0x200029e8        0x0 os_sched_table.o
 .bss           0x200029e8        0x0 os_counter.o
 .bss           0x200029e8        0x0 sys_tick.o
 .bss           0x200029e8        0x4 os_isr.o
                0x200029e8                isrCnt
 *fill*         0x200029ec        0x4 
 COMMON         0x200029f0      0x8d0 os_isr.o
                0x200029f0                Os_IsrVarList
                0x20002ac0                Os_IsrStack
 .bss           0x200032c0        0x0 os_arctest.o
 .bss           0x200032c0        0x0 os_application.o
 COMMON         0x200032c0        0x2 os_application.o
                0x200032c0                Os_AppVar
 .bss           0x200032c2        0x0 irq.o
 .bss           0x200032c2        0x1 Det.o
 .bss           0x200032c3        0x0 Det_Cfg.o
 .bss           0x200032c3        0x0 Com_Cfg.o
 .bss           0x200032c3        0x0 Com_PbCfg.o
 *fill*         0x200032c3        0x1 
 .bss           0x200032c4       0x18 Com_Com.o
 COMMON         0x200032dc        0x0 Com_Com.o
                0x200032dc                Com_BufferPduState
 .bss           0x200032dc        0x0 Com_Sched.o
 .bss           0x200032dc      0x20c Com.o
 COMMON         0x200034e8        0x4 Com.o
                0x200034e8                ComConfig
 .bss           0x200034ec        0x0 Com_misc.o
 .bss           0x200034ec        0x0 PduR_CanNm.o
 .bss           0x200034ec        0x0 PduR_Com.o
 .bss           0x200034ec        0x0 PduR_Logic.o
 .bss           0x200034ec        0x0 PduR_LinIf.o
 .bss           0x200034ec        0x0 PduR_PbCfg.o
 .bss           0x200034ec        0x8 PduR_Cfg.o
                0x200034ec                PduRTpRouteBufferPtrs
                0x200034f0                PduRTxBuffers
 .bss           0x200034f4        0x0 PduR_CanIf.o
 .bss           0x200034f4        0x0 PduR_CanTp.o
 .bss           0x200034f4        0x0 PduR_J1939Tp.o
 .bss           0x200034f4        0x0 PduR_IpduM.o
 .bss           0x200034f4        0x0 PduR_Dcm.o
 .bss           0x200034f4        0x0 PduR_SoAd.o
 .bss           0x200034f4        0x0 PduR_Routing.o
 .bss           0x200034f4        0x1 PduR.o
                0x200034f4                PduRState
 *fill*         0x200034f5        0x3 
 COMMON         0x200034f8        0x4 PduR.o
                0x200034f8                PduRConfig
 .bss           0x200034fc        0x8 IoHwAb_Digital.o
                0x200034fc                IoHwAb_MOTOR_1_Locked
                0x200034fd                IoHwAb_MOTOR_1_Saved
                0x200034fe                IoHwAb_EndStop_Locked
                0x200034ff                IoHwAb_EndStop_Saved
                0x20003500                IoHwAb_Obstacle_Locked
                0x20003501                IoHwAb_Obstacle_Saved
                0x20003502                IoHwAb_MOTOR_2_Locked
                0x20003503                IoHwAb_MOTOR_2_Saved
 .bss           0x20003504        0x0 IoHwAb_Analog.o
 .bss           0x20003504        0x0 IoHwAb_Pwm.o
 .bss           0x20003504        0x8 ramlog.o
 .bss           0x2000350c        0x0 cirq_buffer.o
 .bss           0x2000350c        0x4 clib_port.o
 COMMON         0x20003510     0x3e80 clib_port.o
                0x20003510                _heap
 .bss           0x20007390        0x0 clib.o
 .bss           0x20007390        0x0 printf.o
 .bss           0x20007390        0x0 xtoa.o
 .bss           0x20007390        0x0 stm32f10x_gpio.o
 .bss           0x20007390        0x0 d:/research/pwc/arccore/com.arccore.a4.arm.bundle-win32.win32.x86_64/msys/opt/arm-none-eabi/bin/../lib/gcc/arm-none-eabi/4.8.2/../../../../arm-none-eabi/lib/thumb/armv7-m\libc.a(lib_a-abort.o)
 .bss           0x20007390        0x0 d:/research/pwc/arccore/com.arccore.a4.arm.bundle-win32.win32.x86_64/msys/opt/arm-none-eabi/bin/../lib/gcc/arm-none-eabi/4.8.2/../../../../arm-none-eabi/lib/thumb/armv7-m\libc.a(lib_a-fopen.o)
 .bss           0x20007390        0x0 d:/research/pwc/arccore/com.arccore.a4.arm.bundle-win32.win32.x86_64/msys/opt/arm-none-eabi/bin/../lib/gcc/arm-none-eabi/4.8.2/../../../../arm-none-eabi/lib/thumb/armv7-m\libc.a(lib_a-fseek.o)
 .bss           0x20007390        0x0 d:/research/pwc/arccore/com.arccore.a4.arm.bundle-win32.win32.x86_64/msys/opt/arm-none-eabi/bin/../lib/gcc/arm-none-eabi/4.8.2/../../../../arm-none-eabi/lib/thumb/armv7-m\libc.a(lib_a-fstatr.o)
 .bss           0x20007390        0x0 d:/research/pwc/arccore/com.arccore.a4.arm.bundle-win32.win32.x86_64/msys/opt/arm-none-eabi/bin/../lib/gcc/arm-none-eabi/4.8.2/../../../../arm-none-eabi/lib/thumb/armv7-m\libc.a(lib_a-impure.o)
 .bss           0x20007390        0x0 d:/research/pwc/arccore/com.arccore.a4.arm.bundle-win32.win32.x86_64/msys/opt/arm-none-eabi/bin/../lib/gcc/arm-none-eabi/4.8.2/../../../../arm-none-eabi/lib/thumb/armv7-m\libc.a(lib_a-makebuf.o)
 .bss           0x20007390        0x0 d:/research/pwc/arccore/com.arccore.a4.arm.bundle-win32.win32.x86_64/msys/opt/arm-none-eabi/bin/../lib/gcc/arm-none-eabi/4.8.2/../../../../arm-none-eabi/lib/thumb/armv7-m\libc.a(lib_a-malloc.o)
 .bss           0x20007390       0x34 d:/research/pwc/arccore/com.arccore.a4.arm.bundle-win32.win32.x86_64/msys/opt/arm-none-eabi/bin/../lib/gcc/arm-none-eabi/4.8.2/../../../../arm-none-eabi/lib/thumb/armv7-m\libc.a(lib_a-mallocr.o)
                0x20007390                __malloc_top_pad
                0x20007394                __malloc_max_sbrked_mem
                0x20007398                __malloc_max_total_mem
                0x2000739c                __malloc_current_mallinfo
 .bss           0x200073c4        0x0 d:/research/pwc/arccore/com.arccore.a4.arm.bundle-win32.win32.x86_64/msys/opt/arm-none-eabi/bin/../lib/gcc/arm-none-eabi/4.8.2/../../../../arm-none-eabi/lib/thumb/armv7-m\libc.a(lib_a-memcmp.o)
 .bss           0x200073c4        0x0 d:/research/pwc/arccore/com.arccore.a4.arm.bundle-win32.win32.x86_64/msys/opt/arm-none-eabi/bin/../lib/gcc/arm-none-eabi/4.8.2/../../../../arm-none-eabi/lib/thumb/armv7-m\libc.a(lib_a-memcpy-stub.o)
 .bss           0x200073c4        0x0 d:/research/pwc/arccore/com.arccore.a4.arm.bundle-win32.win32.x86_64/msys/opt/arm-none-eabi/bin/../lib/gcc/arm-none-eabi/4.8.2/../../../../arm-none-eabi/lib/thumb/armv7-m\libc.a(lib_a-memset.o)
 .bss           0x200073c4        0x4 d:/research/pwc/arccore/com.arccore.a4.arm.bundle-win32.win32.x86_64/msys/opt/arm-none-eabi/bin/../lib/gcc/arm-none-eabi/4.8.2/../../../../arm-none-eabi/lib/thumb/armv7-m\libc.a(lib_a-mlock.o)
 .bss           0x200073c8        0x0 d:/research/pwc/arccore/com.arccore.a4.arm.bundle-win32.win32.x86_64/msys/opt/arm-none-eabi/bin/../lib/gcc/arm-none-eabi/4.8.2/../../../../arm-none-eabi/lib/thumb/armv7-m\libc.a(lib_a-openr.o)
 .bss           0x200073c8        0x0 d:/research/pwc/arccore/com.arccore.a4.arm.bundle-win32.win32.x86_64/msys/opt/arm-none-eabi/bin/../lib/gcc/arm-none-eabi/4.8.2/../../../../arm-none-eabi/lib/thumb/armv7-m\libc.a(lib_a-reent.o)
 COMMON         0x200073c8        0x4 d:/research/pwc/arccore/com.arccore.a4.arm.bundle-win32.win32.x86_64/msys/opt/arm-none-eabi/bin/../lib/gcc/arm-none-eabi/4.8.2/../../../../arm-none-eabi/lib/thumb/armv7-m\libc.a(lib_a-reent.o)
                0x200073c8                errno
 .bss           0x200073cc        0x0 d:/research/pwc/arccore/com.arccore.a4.arm.bundle-win32.win32.x86_64/msys/opt/arm-none-eabi/bin/../lib/gcc/arm-none-eabi/4.8.2/../../../../arm-none-eabi/lib/thumb/armv7-m\libc.a(lib_a-refill.o)
 .bss           0x200073cc        0x0 d:/research/pwc/arccore/com.arccore.a4.arm.bundle-win32.win32.x86_64/msys/opt/arm-none-eabi/bin/../lib/gcc/arm-none-eabi/4.8.2/../../../../arm-none-eabi/lib/thumb/armv7-m\libc.a(lib_a-sbrkr.o)
 .bss           0x200073cc        0x0 d:/research/pwc/arccore/com.arccore.a4.arm.bundle-win32.win32.x86_64/msys/opt/arm-none-eabi/bin/../lib/gcc/arm-none-eabi/4.8.2/../../../../arm-none-eabi/lib/thumb/armv7-m\libc.a(lib_a-signal.o)
 .bss           0x200073cc        0x0 d:/research/pwc/arccore/com.arccore.a4.arm.bundle-win32.win32.x86_64/msys/opt/arm-none-eabi/bin/../lib/gcc/arm-none-eabi/4.8.2/../../../../arm-none-eabi/lib/thumb/armv7-m\libc.a(lib_a-signalr.o)
 .bss           0x200073cc        0x0 d:/research/pwc/arccore/com.arccore.a4.arm.bundle-win32.win32.x86_64/msys/opt/arm-none-eabi/bin/../lib/gcc/arm-none-eabi/4.8.2/../../../../arm-none-eabi/lib/thumb/armv7-m\libc.a(lib_a-stdio.o)
 .bss           0x200073cc        0x0 d:/research/pwc/arccore/com.arccore.a4.arm.bundle-win32.win32.x86_64/msys/opt/arm-none-eabi/bin/../lib/gcc/arm-none-eabi/4.8.2/../../../../arm-none-eabi/lib/thumb/armv7-m\libc.a(lib_a-strcmp.o)
 .bss           0x200073cc        0x0 d:/research/pwc/arccore/com.arccore.a4.arm.bundle-win32.win32.x86_64/msys/opt/arm-none-eabi/bin/../lib/gcc/arm-none-eabi/4.8.2/../../../../arm-none-eabi/lib/thumb/armv7-m\libc.a(lib_a-strcpy.o)
 .bss           0x200073cc        0x0 d:/research/pwc/arccore/com.arccore.a4.arm.bundle-win32.win32.x86_64/msys/opt/arm-none-eabi/bin/../lib/gcc/arm-none-eabi/4.8.2/../../../../arm-none-eabi/lib/thumb/armv7-m\libc.a(lib_a-strlen.o)
 .bss           0x200073cc        0x0 d:/research/pwc/arccore/com.arccore.a4.arm.bundle-win32.win32.x86_64/msys/opt/arm-none-eabi/bin/../lib/gcc/arm-none-eabi/4.8.2/../../../../arm-none-eabi/lib/thumb/armv7-m\libc.a(lib_a-strncpy.o)
 .bss           0x200073cc        0x0 d:/research/pwc/arccore/com.arccore.a4.arm.bundle-win32.win32.x86_64/msys/opt/arm-none-eabi/bin/../lib/gcc/arm-none-eabi/4.8.2/../../../../arm-none-eabi/lib/thumb/armv7-m\libc.a(lib_a-strtoul.o)
 .bss           0x200073cc        0x0 d:/research/pwc/arccore/com.arccore.a4.arm.bundle-win32.win32.x86_64/msys/opt/arm-none-eabi/bin/../lib/gcc/arm-none-eabi/4.8.2/../../../../arm-none-eabi/lib/thumb/armv7-m\libc.a(lib_a-sysread.o)
 .bss           0x200073cc        0x0 d:/research/pwc/arccore/com.arccore.a4.arm.bundle-win32.win32.x86_64/msys/opt/arm-none-eabi/bin/../lib/gcc/arm-none-eabi/4.8.2/../../../../arm-none-eabi/lib/thumb/armv7-m\libc.a(lib_a-syswrite.o)
 .bss           0x200073cc        0x0 d:/research/pwc/arccore/com.arccore.a4.arm.bundle-win32.win32.x86_64/msys/opt/arm-none-eabi/bin/../lib/gcc/arm-none-eabi/4.8.2/../../../../arm-none-eabi/lib/thumb/armv7-m\libc.a(lib_a-writer.o)
 .bss           0x200073cc        0x0 d:/research/pwc/arccore/com.arccore.a4.arm.bundle-win32.win32.x86_64/msys/opt/arm-none-eabi/bin/../lib/gcc/arm-none-eabi/4.8.2/../../../../arm-none-eabi/lib/thumb/armv7-m\libc.a(lib_a-closer.o)
 .bss           0x200073cc        0x0 d:/research/pwc/arccore/com.arccore.a4.arm.bundle-win32.win32.x86_64/msys/opt/arm-none-eabi/bin/../lib/gcc/arm-none-eabi/4.8.2/../../../../arm-none-eabi/lib/thumb/armv7-m\libc.a(lib_a-ctype_.o)
 .bss           0x200073cc        0x0 d:/research/pwc/arccore/com.arccore.a4.arm.bundle-win32.win32.x86_64/msys/opt/arm-none-eabi/bin/../lib/gcc/arm-none-eabi/4.8.2/../../../../arm-none-eabi/lib/thumb/armv7-m\libc.a(lib_a-fflush.o)
 .bss           0x200073cc        0x8 d:/research/pwc/arccore/com.arccore.a4.arm.bundle-win32.win32.x86_64/msys/opt/arm-none-eabi/bin/../lib/gcc/arm-none-eabi/4.8.2/../../../../arm-none-eabi/lib/thumb/armv7-m\libc.a(lib_a-findfp.o)
 .bss           0x200073d4        0x0 d:/research/pwc/arccore/com.arccore.a4.arm.bundle-win32.win32.x86_64/msys/opt/arm-none-eabi/bin/../lib/gcc/arm-none-eabi/4.8.2/../../../../arm-none-eabi/lib/thumb/armv7-m\libc.a(lib_a-flags.o)
 .bss           0x200073d4        0x0 d:/research/pwc/arccore/com.arccore.a4.arm.bundle-win32.win32.x86_64/msys/opt/arm-none-eabi/bin/../lib/gcc/arm-none-eabi/4.8.2/../../../../arm-none-eabi/lib/thumb/armv7-m\libc.a(lib_a-freer.o)
 .bss           0x200073d4        0x0 d:/research/pwc/arccore/com.arccore.a4.arm.bundle-win32.win32.x86_64/msys/opt/arm-none-eabi/bin/../lib/gcc/arm-none-eabi/4.8.2/../../../../arm-none-eabi/lib/thumb/armv7-m\libc.a(lib_a-fwalk.o)
 .bss           0x200073d4        0x0 d:/research/pwc/arccore/com.arccore.a4.arm.bundle-win32.win32.x86_64/msys/opt/arm-none-eabi/bin/../lib/gcc/arm-none-eabi/4.8.2/../../../../arm-none-eabi/lib/thumb/armv7-m\libc.a(lib_a-isattyr.o)
 .bss           0x200073d4        0x0 d:/research/pwc/arccore/com.arccore.a4.arm.bundle-win32.win32.x86_64/msys/opt/arm-none-eabi/bin/../lib/gcc/arm-none-eabi/4.8.2/../../../../arm-none-eabi/lib/thumb/armv7-m\libc.a(lib_a-lseekr.o)
 .bss           0x200073d4        0x0 d:/research/pwc/arccore/com.arccore.a4.arm.bundle-win32.win32.x86_64/msys/opt/arm-none-eabi/bin/../lib/gcc/arm-none-eabi/4.8.2/../../../../arm-none-eabi/lib/thumb/armv7-m\libc.a(lib_a-readr.o)
 .bss           0x200073d4        0x0 d:/research/pwc/arccore/com.arccore.a4.arm.bundle-win32.win32.x86_64/msys/opt/arm-none-eabi/bin/../lib/gcc/arm-none-eabi/4.8.2/../../../../arm-none-eabi/lib/thumb/armv7-m\libc.a(lib_a-fclose.o)
                0x200073d4                . = ALIGN (0x4)
                0x200073d4                _ebss = .

.init_stack     0x200073e0       0xc8 load address 0x0801dd70
                0x200074a8                . = (. + 0xc8)
 *fill*         0x200073e0       0xc8 
                0x200074a8                _estack = .

.fls_ram        0x200074b0        0x0
                0x200074b0                __FLS_ERASE_RAM__ = .
                0x200074b0                . = (. + SIZEOF (.fls_rom))

.ctors
 *(SORT(.ctors.*))

.uninit         0x200074b0      0x834 load address 0x0801de40
 *(.winidea_port .ramlog .dem_eventmemory_pri)
 .ramlog        0x200074b0       0x64 Det.o
                0x200074b0                Det_RamlogIndex
                0x200074b4                Det_RamLog
 .ramlog        0x20007514      0x7d0 ramlog.o
                0x00000000                __FLS_SIZE__ = SIZEOF (.fls_rom)
                0x200074b0                __FLS_WRITE_RAM__ = (__FLS_ERASE_RAM__ + (__FLS_WRITE_ROM__ - __FLS_ERASE_ROM__))

.stab
 *(.stab)

.stabstr
 *(.stabstr)

.stab.excl
 *(.stab.excl)

.stab.exclstr
 *(.stab.exclstr)

.stab.index
 *(.stab.index)

.stab.indexstr
 *(.stab.indexstr)

.comment        0x00000000       0x11
 *(.comment)
 .comment       0x00000000       0x11 Rte.o
                                 0x12 (size before relaxing)
 .comment       0x00000000       0x12 Rte_Main.o
 .comment       0x00000000       0x12 Rte_Calprms.o
 .comment       0x00000000       0x12 Rte_Internal.o
 .comment       0x00000000       0x12 Rte_Callbacks.o
 .comment       0x00000000       0x12 Rte_Fifo.o
 .comment       0x00000000       0x12 Rte_EndStopDtcType.o
 .comment       0x00000000       0x12 Rte_IoHwAb.o
 .comment       0x00000000       0x12 Rte_MotorDriverType.o
 .comment       0x00000000       0x12 Rte_ObstacleDtcType.o
 .comment       0x00000000       0x12 Rte_SwitchType.o
 .comment       0x00000000       0x12 Rte_WinArbitratorType.o
 .comment       0x00000000       0x12 Rte_WinControllerType.o
 .comment       0x00000000       0x12 EndStopDtc.o
 .comment       0x00000000       0x12 IoHwAb.o
 .comment       0x00000000       0x12 MotorDriver.o
 .comment       0x00000000       0x12 ObstacleDtc.o
 .comment       0x00000000       0x12 Switch.o
 .comment       0x00000000       0x12 Tasks.o
 .comment       0x00000000       0x12 WinArbitrator.o
 .comment       0x00000000       0x12 WinController.o
 .comment       0x00000000       0x12 stm3210c_eval.o
 .comment       0x00000000       0x12 stm3210c_eval_ioe.o
 .comment       0x00000000       0x12 system_stm32f10x.o
 .comment       0x00000000       0x12 misc.o
 .comment       0x00000000       0x12 stm32f10x_exti.o
 .comment       0x00000000       0x12 stm32f10x_usart.o
 .comment       0x00000000       0x12 stm32f10x_i2c.o
 .comment       0x00000000       0x12 stm32f10x_spi.o
 .comment       0x00000000       0x12 stm32f10x_dma.o
 .comment       0x00000000       0x12 core_cm3.o
 .comment       0x00000000       0x12 stm32f10x_rcc.o
 .comment       0x00000000       0x12 Os_Cfg.o
 .comment       0x00000000       0x12 EcuM.o
 .comment       0x00000000       0x12 EcuM_Fixed.o
 .comment       0x00000000       0x12 EcuM_Main.o
 .comment       0x00000000       0x12 EcuM_PBcfg.o
 .comment       0x00000000       0x12 EcuM_PBHeader.o
 .comment       0x00000000       0x12 EcuM_Callout_Stubs.o
 .comment       0x00000000       0x12 Mcu.o
 .comment       0x00000000       0x12 Mcu_LCfg.o
 .comment       0x00000000       0x12 Mcu_PBcfg.o
 .comment       0x00000000       0x12 Dio.o
 .comment       0x00000000       0x12 Dio_Lcfg.o
 .comment       0x00000000       0x12 Port.o
 .comment       0x00000000       0x12 Port_Lcfg.o
 .comment       0x00000000       0x12 Port_PBcfg.o
 .comment       0x00000000       0x12 os_event.o
 .comment       0x00000000       0x12 os_init.o
 .comment       0x00000000       0x12 arch.o
 .comment       0x00000000       0x12 os_task.o
 .comment       0x00000000       0x12 os_resource.o
 .comment       0x00000000       0x12 os_alarm.o
 .comment       0x00000000       0x12 os_sched_table.o
 .comment       0x00000000       0x12 os_counter.o
 .comment       0x00000000       0x12 sys_tick.o
 .comment       0x00000000       0x12 os_isr.o
 .comment       0x00000000       0x12 os_arctest.o
 .comment       0x00000000       0x12 os_application.o
 .comment       0x00000000       0x12 irq.o
 .comment       0x00000000       0x12 Det.o
 .comment       0x00000000       0x12 Det_Cfg.o
 .comment       0x00000000       0x12 Com_Cfg.o
 .comment       0x00000000       0x12 Com_PbCfg.o
 .comment       0x00000000       0x12 Com_Com.o
 .comment       0x00000000       0x12 Com_Sched.o
 .comment       0x00000000       0x12 Com.o
 .comment       0x00000000       0x12 Com_misc.o
 .comment       0x00000000       0x12 PduR_CanNm.o
 .comment       0x00000000       0x12 PduR_Com.o
 .comment       0x00000000       0x12 PduR_Logic.o
 .comment       0x00000000       0x12 PduR_LinIf.o
 .comment       0x00000000       0x12 PduR_PbCfg.o
 .comment       0x00000000       0x12 PduR_Cfg.o
 .comment       0x00000000       0x12 PduR_CanIf.o
 .comment       0x00000000       0x12 PduR_CanTp.o
 .comment       0x00000000       0x12 PduR_J1939Tp.o
 .comment       0x00000000       0x12 PduR_IpduM.o
 .comment       0x00000000       0x12 PduR_Dcm.o
 .comment       0x00000000       0x12 PduR_SoAd.o
 .comment       0x00000000       0x12 PduR_Routing.o
 .comment       0x00000000       0x12 PduR.o
 .comment       0x00000000       0x12 IoHwAb_Digital.o
 .comment       0x00000000       0x12 IoHwAb_Analog.o
 .comment       0x00000000       0x12 IoHwAb_Pwm.o
 .comment       0x00000000       0x12 ramlog.o
 .comment       0x00000000       0x12 cirq_buffer.o
 .comment       0x00000000       0x12 clib_port.o
 .comment       0x00000000       0x12 clib.o
 .comment       0x00000000       0x12 printf.o
 .comment       0x00000000       0x12 xtoa.o
 .comment       0x00000000       0x12 stm32f10x_gpio.o
 .comment       0x00000000       0x12 d:/research/pwc/arccore/com.arccore.a4.arm.bundle-win32.win32.x86_64/msys/opt/arm-none-eabi/bin/../lib/gcc/arm-none-eabi/4.8.2/../../../../arm-none-eabi/lib/thumb/armv7-m\libc.a(lib_a-abort.o)
 .comment       0x00000000       0x12 d:/research/pwc/arccore/com.arccore.a4.arm.bundle-win32.win32.x86_64/msys/opt/arm-none-eabi/bin/../lib/gcc/arm-none-eabi/4.8.2/../../../../arm-none-eabi/lib/thumb/armv7-m\libc.a(lib_a-fopen.o)
 .comment       0x00000000       0x12 d:/research/pwc/arccore/com.arccore.a4.arm.bundle-win32.win32.x86_64/msys/opt/arm-none-eabi/bin/../lib/gcc/arm-none-eabi/4.8.2/../../../../arm-none-eabi/lib/thumb/armv7-m\libc.a(lib_a-fseek.o)
 .comment       0x00000000       0x12 d:/research/pwc/arccore/com.arccore.a4.arm.bundle-win32.win32.x86_64/msys/opt/arm-none-eabi/bin/../lib/gcc/arm-none-eabi/4.8.2/../../../../arm-none-eabi/lib/thumb/armv7-m\libc.a(lib_a-fstatr.o)
 .comment       0x00000000       0x12 d:/research/pwc/arccore/com.arccore.a4.arm.bundle-win32.win32.x86_64/msys/opt/arm-none-eabi/bin/../lib/gcc/arm-none-eabi/4.8.2/../../../../arm-none-eabi/lib/thumb/armv7-m\libc.a(lib_a-impure.o)
 .comment       0x00000000       0x12 d:/research/pwc/arccore/com.arccore.a4.arm.bundle-win32.win32.x86_64/msys/opt/arm-none-eabi/bin/../lib/gcc/arm-none-eabi/4.8.2/../../../../arm-none-eabi/lib/thumb/armv7-m\libc.a(lib_a-makebuf.o)
 .comment       0x00000000       0x12 d:/research/pwc/arccore/com.arccore.a4.arm.bundle-win32.win32.x86_64/msys/opt/arm-none-eabi/bin/../lib/gcc/arm-none-eabi/4.8.2/../../../../arm-none-eabi/lib/thumb/armv7-m\libc.a(lib_a-malloc.o)
 .comment       0x00000000       0x12 d:/research/pwc/arccore/com.arccore.a4.arm.bundle-win32.win32.x86_64/msys/opt/arm-none-eabi/bin/../lib/gcc/arm-none-eabi/4.8.2/../../../../arm-none-eabi/lib/thumb/armv7-m\libc.a(lib_a-mallocr.o)
 .comment       0x00000000       0x12 d:/research/pwc/arccore/com.arccore.a4.arm.bundle-win32.win32.x86_64/msys/opt/arm-none-eabi/bin/../lib/gcc/arm-none-eabi/4.8.2/../../../../arm-none-eabi/lib/thumb/armv7-m\libc.a(lib_a-memcmp.o)
 .comment       0x00000000       0x12 d:/research/pwc/arccore/com.arccore.a4.arm.bundle-win32.win32.x86_64/msys/opt/arm-none-eabi/bin/../lib/gcc/arm-none-eabi/4.8.2/../../../../arm-none-eabi/lib/thumb/armv7-m\libc.a(lib_a-memcpy-stub.o)
 .comment       0x00000000       0x12 d:/research/pwc/arccore/com.arccore.a4.arm.bundle-win32.win32.x86_64/msys/opt/arm-none-eabi/bin/../lib/gcc/arm-none-eabi/4.8.2/../../../../arm-none-eabi/lib/thumb/armv7-m\libc.a(lib_a-memset.o)
 .comment       0x00000000       0x12 d:/research/pwc/arccore/com.arccore.a4.arm.bundle-win32.win32.x86_64/msys/opt/arm-none-eabi/bin/../lib/gcc/arm-none-eabi/4.8.2/../../../../arm-none-eabi/lib/thumb/armv7-m\libc.a(lib_a-mlock.o)
 .comment       0x00000000       0x12 d:/research/pwc/arccore/com.arccore.a4.arm.bundle-win32.win32.x86_64/msys/opt/arm-none-eabi/bin/../lib/gcc/arm-none-eabi/4.8.2/../../../../arm-none-eabi/lib/thumb/armv7-m\libc.a(lib_a-openr.o)
 .comment       0x00000000       0x12 d:/research/pwc/arccore/com.arccore.a4.arm.bundle-win32.win32.x86_64/msys/opt/arm-none-eabi/bin/../lib/gcc/arm-none-eabi/4.8.2/../../../../arm-none-eabi/lib/thumb/armv7-m\libc.a(lib_a-reent.o)
 .comment       0x00000000       0x12 d:/research/pwc/arccore/com.arccore.a4.arm.bundle-win32.win32.x86_64/msys/opt/arm-none-eabi/bin/../lib/gcc/arm-none-eabi/4.8.2/../../../../arm-none-eabi/lib/thumb/armv7-m\libc.a(lib_a-refill.o)
 .comment       0x00000000       0x12 d:/research/pwc/arccore/com.arccore.a4.arm.bundle-win32.win32.x86_64/msys/opt/arm-none-eabi/bin/../lib/gcc/arm-none-eabi/4.8.2/../../../../arm-none-eabi/lib/thumb/armv7-m\libc.a(lib_a-sbrkr.o)
 .comment       0x00000000       0x12 d:/research/pwc/arccore/com.arccore.a4.arm.bundle-win32.win32.x86_64/msys/opt/arm-none-eabi/bin/../lib/gcc/arm-none-eabi/4.8.2/../../../../arm-none-eabi/lib/thumb/armv7-m\libc.a(lib_a-signal.o)
 .comment       0x00000000       0x12 d:/research/pwc/arccore/com.arccore.a4.arm.bundle-win32.win32.x86_64/msys/opt/arm-none-eabi/bin/../lib/gcc/arm-none-eabi/4.8.2/../../../../arm-none-eabi/lib/thumb/armv7-m\libc.a(lib_a-signalr.o)
 .comment       0x00000000       0x12 d:/research/pwc/arccore/com.arccore.a4.arm.bundle-win32.win32.x86_64/msys/opt/arm-none-eabi/bin/../lib/gcc/arm-none-eabi/4.8.2/../../../../arm-none-eabi/lib/thumb/armv7-m\libc.a(lib_a-stdio.o)
 .comment       0x00000000       0x12 d:/research/pwc/arccore/com.arccore.a4.arm.bundle-win32.win32.x86_64/msys/opt/arm-none-eabi/bin/../lib/gcc/arm-none-eabi/4.8.2/../../../../arm-none-eabi/lib/thumb/armv7-m\libc.a(lib_a-strcmp.o)
 .comment       0x00000000       0x12 d:/research/pwc/arccore/com.arccore.a4.arm.bundle-win32.win32.x86_64/msys/opt/arm-none-eabi/bin/../lib/gcc/arm-none-eabi/4.8.2/../../../../arm-none-eabi/lib/thumb/armv7-m\libc.a(lib_a-strcpy.o)
 .comment       0x00000000       0x12 d:/research/pwc/arccore/com.arccore.a4.arm.bundle-win32.win32.x86_64/msys/opt/arm-none-eabi/bin/../lib/gcc/arm-none-eabi/4.8.2/../../../../arm-none-eabi/lib/thumb/armv7-m\libc.a(lib_a-strlen.o)
 .comment       0x00000000       0x12 d:/research/pwc/arccore/com.arccore.a4.arm.bundle-win32.win32.x86_64/msys/opt/arm-none-eabi/bin/../lib/gcc/arm-none-eabi/4.8.2/../../../../arm-none-eabi/lib/thumb/armv7-m\libc.a(lib_a-strncpy.o)
 .comment       0x00000000       0x12 d:/research/pwc/arccore/com.arccore.a4.arm.bundle-win32.win32.x86_64/msys/opt/arm-none-eabi/bin/../lib/gcc/arm-none-eabi/4.8.2/../../../../arm-none-eabi/lib/thumb/armv7-m\libc.a(lib_a-strtoul.o)
 .comment       0x00000000       0x12 d:/research/pwc/arccore/com.arccore.a4.arm.bundle-win32.win32.x86_64/msys/opt/arm-none-eabi/bin/../lib/gcc/arm-none-eabi/4.8.2/../../../../arm-none-eabi/lib/thumb/armv7-m\libc.a(lib_a-sysread.o)
 .comment       0x00000000       0x12 d:/research/pwc/arccore/com.arccore.a4.arm.bundle-win32.win32.x86_64/msys/opt/arm-none-eabi/bin/../lib/gcc/arm-none-eabi/4.8.2/../../../../arm-none-eabi/lib/thumb/armv7-m\libc.a(lib_a-syswrite.o)
 .comment       0x00000000       0x12 d:/research/pwc/arccore/com.arccore.a4.arm.bundle-win32.win32.x86_64/msys/opt/arm-none-eabi/bin/../lib/gcc/arm-none-eabi/4.8.2/../../../../arm-none-eabi/lib/thumb/armv7-m\libc.a(lib_a-writer.o)
 .comment       0x00000000       0x12 d:/research/pwc/arccore/com.arccore.a4.arm.bundle-win32.win32.x86_64/msys/opt/arm-none-eabi/bin/../lib/gcc/arm-none-eabi/4.8.2/../../../../arm-none-eabi/lib/thumb/armv7-m\libc.a(lib_a-closer.o)
 .comment       0x00000000       0x12 d:/research/pwc/arccore/com.arccore.a4.arm.bundle-win32.win32.x86_64/msys/opt/arm-none-eabi/bin/../lib/gcc/arm-none-eabi/4.8.2/../../../../arm-none-eabi/lib/thumb/armv7-m\libc.a(lib_a-ctype_.o)
 .comment       0x00000000       0x12 d:/research/pwc/arccore/com.arccore.a4.arm.bundle-win32.win32.x86_64/msys/opt/arm-none-eabi/bin/../lib/gcc/arm-none-eabi/4.8.2/../../../../arm-none-eabi/lib/thumb/armv7-m\libc.a(lib_a-fflush.o)
 .comment       0x00000000       0x12 d:/research/pwc/arccore/com.arccore.a4.arm.bundle-win32.win32.x86_64/msys/opt/arm-none-eabi/bin/../lib/gcc/arm-none-eabi/4.8.2/../../../../arm-none-eabi/lib/thumb/armv7-m\libc.a(lib_a-findfp.o)
 .comment       0x00000000       0x12 d:/research/pwc/arccore/com.arccore.a4.arm.bundle-win32.win32.x86_64/msys/opt/arm-none-eabi/bin/../lib/gcc/arm-none-eabi/4.8.2/../../../../arm-none-eabi/lib/thumb/armv7-m\libc.a(lib_a-flags.o)
 .comment       0x00000000       0x12 d:/research/pwc/arccore/com.arccore.a4.arm.bundle-win32.win32.x86_64/msys/opt/arm-none-eabi/bin/../lib/gcc/arm-none-eabi/4.8.2/../../../../arm-none-eabi/lib/thumb/armv7-m\libc.a(lib_a-freer.o)
 .comment       0x00000000       0x12 d:/research/pwc/arccore/com.arccore.a4.arm.bundle-win32.win32.x86_64/msys/opt/arm-none-eabi/bin/../lib/gcc/arm-none-eabi/4.8.2/../../../../arm-none-eabi/lib/thumb/armv7-m\libc.a(lib_a-fwalk.o)
 .comment       0x00000000       0x12 d:/research/pwc/arccore/com.arccore.a4.arm.bundle-win32.win32.x86_64/msys/opt/arm-none-eabi/bin/../lib/gcc/arm-none-eabi/4.8.2/../../../../arm-none-eabi/lib/thumb/armv7-m\libc.a(lib_a-isattyr.o)
 .comment       0x00000000       0x12 d:/research/pwc/arccore/com.arccore.a4.arm.bundle-win32.win32.x86_64/msys/opt/arm-none-eabi/bin/../lib/gcc/arm-none-eabi/4.8.2/../../../../arm-none-eabi/lib/thumb/armv7-m\libc.a(lib_a-lseekr.o)
 .comment       0x00000000       0x12 d:/research/pwc/arccore/com.arccore.a4.arm.bundle-win32.win32.x86_64/msys/opt/arm-none-eabi/bin/../lib/gcc/arm-none-eabi/4.8.2/../../../../arm-none-eabi/lib/thumb/armv7-m\libc.a(lib_a-readr.o)
 .comment       0x00000000       0x12 d:/research/pwc/arccore/com.arccore.a4.arm.bundle-win32.win32.x86_64/msys/opt/arm-none-eabi/bin/../lib/gcc/arm-none-eabi/4.8.2/../../../../arm-none-eabi/lib/thumb/armv7-m\libc.a(lib_a-fclose.o)

.ARM.attributes
                0x00000000       0x31
 .ARM.attributes
                0x00000000       0x33 Rte.o
 .ARM.attributes
                0x00000033       0x33 Rte_Main.o
 .ARM.attributes
                0x00000066       0x33 Rte_Calprms.o
 .ARM.attributes
                0x00000099       0x33 Rte_Internal.o
 .ARM.attributes
                0x000000cc       0x33 Rte_Callbacks.o
 .ARM.attributes
                0x000000ff       0x33 Rte_Fifo.o
 .ARM.attributes
                0x00000132       0x33 Rte_EndStopDtcType.o
 .ARM.attributes
                0x00000165       0x33 Rte_IoHwAb.o
 .ARM.attributes
                0x00000198       0x33 Rte_MotorDriverType.o
 .ARM.attributes
                0x000001cb       0x33 Rte_ObstacleDtcType.o
 .ARM.attributes
                0x000001fe       0x33 Rte_SwitchType.o
 .ARM.attributes
                0x00000231       0x33 Rte_WinArbitratorType.o
 .ARM.attributes
                0x00000264       0x33 Rte_WinControllerType.o
 .ARM.attributes
                0x00000297       0x33 EndStopDtc.o
 .ARM.attributes
                0x000002ca       0x33 IoHwAb.o
 .ARM.attributes
                0x000002fd       0x33 MotorDriver.o
 .ARM.attributes
                0x00000330       0x33 ObstacleDtc.o
 .ARM.attributes
                0x00000363       0x33 Switch.o
 .ARM.attributes
                0x00000396       0x33 Tasks.o
 .ARM.attributes
                0x000003c9       0x33 WinArbitrator.o
 .ARM.attributes
                0x000003fc       0x33 WinController.o
 .ARM.attributes
                0x0000042f       0x33 stm3210c_eval.o
 .ARM.attributes
                0x00000462       0x33 stm3210c_eval_ioe.o
 .ARM.attributes
                0x00000495       0x33 system_stm32f10x.o
 .ARM.attributes
                0x000004c8       0x33 misc.o
 .ARM.attributes
                0x000004fb       0x33 stm32f10x_exti.o
 .ARM.attributes
                0x0000052e       0x33 stm32f10x_usart.o
 .ARM.attributes
                0x00000561       0x33 stm32f10x_i2c.o
 .ARM.attributes
                0x00000594       0x33 stm32f10x_spi.o
 .ARM.attributes
                0x000005c7       0x33 stm32f10x_dma.o
 .ARM.attributes
                0x000005fa       0x33 core_cm3.o
 .ARM.attributes
                0x0000062d       0x21 startup_stm32f10x.o
 .ARM.attributes
                0x0000064e       0x33 stm32f10x_rcc.o
 .ARM.attributes
                0x00000681       0x33 Os_Cfg.o
 .ARM.attributes
                0x000006b4       0x33 EcuM.o
 .ARM.attributes
                0x000006e7       0x33 EcuM_Fixed.o
 .ARM.attributes
                0x0000071a       0x33 EcuM_Main.o
 .ARM.attributes
                0x0000074d       0x33 EcuM_PBcfg.o
 .ARM.attributes
                0x00000780       0x33 EcuM_PBHeader.o
 .ARM.attributes
                0x000007b3       0x33 EcuM_Callout_Stubs.o
 .ARM.attributes
                0x000007e6       0x33 Mcu.o
 .ARM.attributes
                0x00000819       0x33 Mcu_LCfg.o
 .ARM.attributes
                0x0000084c       0x33 Mcu_PBcfg.o
 .ARM.attributes
                0x0000087f       0x33 Dio.o
 .ARM.attributes
                0x000008b2       0x33 Dio_Lcfg.o
 .ARM.attributes
                0x000008e5       0x33 Port.o
 .ARM.attributes
                0x00000918       0x33 Port_Lcfg.o
 .ARM.attributes
                0x0000094b       0x33 Port_PBcfg.o
 .ARM.attributes
                0x0000097e       0x21 arch_krn.o
 .ARM.attributes
                0x0000099f       0x33 os_event.o
 .ARM.attributes
                0x000009d2       0x33 os_init.o
 .ARM.attributes
                0x00000a05       0x33 arch.o
 .ARM.attributes
                0x00000a38       0x33 os_task.o
 .ARM.attributes
                0x00000a6b       0x33 os_resource.o
 .ARM.attributes
                0x00000a9e       0x33 os_alarm.o
 .ARM.attributes
                0x00000ad1       0x33 os_sched_table.o
 .ARM.attributes
                0x00000b04       0x33 os_counter.o
 .ARM.attributes
                0x00000b37       0x33 sys_tick.o
 .ARM.attributes
                0x00000b6a       0x33 os_isr.o
 .ARM.attributes
                0x00000b9d       0x33 os_arctest.o
 .ARM.attributes
                0x00000bd0       0x33 os_application.o
 .ARM.attributes
                0x00000c03       0x33 irq.o
 .ARM.attributes
                0x00000c36       0x33 Det.o
 .ARM.attributes
                0x00000c69       0x33 Det_Cfg.o
 .ARM.attributes
                0x00000c9c       0x33 Com_Cfg.o
 .ARM.attributes
                0x00000ccf       0x33 Com_PbCfg.o
 .ARM.attributes
                0x00000d02       0x33 Com_Com.o
 .ARM.attributes
                0x00000d35       0x33 Com_Sched.o
 .ARM.attributes
                0x00000d68       0x33 Com.o
 .ARM.attributes
                0x00000d9b       0x33 Com_misc.o
 .ARM.attributes
                0x00000dce       0x33 PduR_CanNm.o
 .ARM.attributes
                0x00000e01       0x33 PduR_Com.o
 .ARM.attributes
                0x00000e34       0x33 PduR_Logic.o
 .ARM.attributes
                0x00000e67       0x33 PduR_LinIf.o
 .ARM.attributes
                0x00000e9a       0x33 PduR_PbCfg.o
 .ARM.attributes
                0x00000ecd       0x33 PduR_Cfg.o
 .ARM.attributes
                0x00000f00       0x33 PduR_CanIf.o
 .ARM.attributes
                0x00000f33       0x33 PduR_CanTp.o
 .ARM.attributes
                0x00000f66       0x33 PduR_J1939Tp.o
 .ARM.attributes
                0x00000f99       0x33 PduR_IpduM.o
 .ARM.attributes
                0x00000fcc       0x33 PduR_Dcm.o
 .ARM.attributes
                0x00000fff       0x33 PduR_SoAd.o
 .ARM.attributes
                0x00001032       0x33 PduR_Routing.o
 .ARM.attributes
                0x00001065       0x33 PduR.o
 .ARM.attributes
                0x00001098       0x33 IoHwAb_Digital.o
 .ARM.attributes
                0x000010cb       0x33 IoHwAb_Analog.o
 .ARM.attributes
                0x000010fe       0x33 IoHwAb_Pwm.o
 .ARM.attributes
                0x00001131       0x33 ramlog.o
 .ARM.attributes
                0x00001164       0x33 cirq_buffer.o
 .ARM.attributes
                0x00001197       0x33 clib_port.o
 .ARM.attributes
                0x000011ca       0x33 clib.o
 .ARM.attributes
                0x000011fd       0x33 printf.o
 .ARM.attributes
                0x00001230       0x33 xtoa.o
 .ARM.attributes
                0x00001263       0x33 stm32f10x_gpio.o
 .ARM.attributes
                0x00001296       0x2d d:/research/pwc/arccore/com.arccore.a4.arm.bundle-win32.win32.x86_64/msys/opt/arm-none-eabi/bin/../lib/gcc/arm-none-eabi/4.8.2/../../../../arm-none-eabi/lib/thumb/armv7-m\libc.a(lib_a-abort.o)
 .ARM.attributes
                0x000012c3       0x2d d:/research/pwc/arccore/com.arccore.a4.arm.bundle-win32.win32.x86_64/msys/opt/arm-none-eabi/bin/../lib/gcc/arm-none-eabi/4.8.2/../../../../arm-none-eabi/lib/thumb/armv7-m\libc.a(lib_a-fopen.o)
 .ARM.attributes
                0x000012f0       0x2d d:/research/pwc/arccore/com.arccore.a4.arm.bundle-win32.win32.x86_64/msys/opt/arm-none-eabi/bin/../lib/gcc/arm-none-eabi/4.8.2/../../../../arm-none-eabi/lib/thumb/armv7-m\libc.a(lib_a-fseek.o)
 .ARM.attributes
                0x0000131d       0x2d d:/research/pwc/arccore/com.arccore.a4.arm.bundle-win32.win32.x86_64/msys/opt/arm-none-eabi/bin/../lib/gcc/arm-none-eabi/4.8.2/../../../../arm-none-eabi/lib/thumb/armv7-m\libc.a(lib_a-fstatr.o)
 .ARM.attributes
                0x0000134a       0x2d d:/research/pwc/arccore/com.arccore.a4.arm.bundle-win32.win32.x86_64/msys/opt/arm-none-eabi/bin/../lib/gcc/arm-none-eabi/4.8.2/../../../../arm-none-eabi/lib/thumb/armv7-m\libc.a(lib_a-impure.o)
 .ARM.attributes
                0x00001377       0x2d d:/research/pwc/arccore/com.arccore.a4.arm.bundle-win32.win32.x86_64/msys/opt/arm-none-eabi/bin/../lib/gcc/arm-none-eabi/4.8.2/../../../../arm-none-eabi/lib/thumb/armv7-m\libc.a(lib_a-makebuf.o)
 .ARM.attributes
                0x000013a4       0x2d d:/research/pwc/arccore/com.arccore.a4.arm.bundle-win32.win32.x86_64/msys/opt/arm-none-eabi/bin/../lib/gcc/arm-none-eabi/4.8.2/../../../../arm-none-eabi/lib/thumb/armv7-m\libc.a(lib_a-malloc.o)
 .ARM.attributes
                0x000013d1       0x2d d:/research/pwc/arccore/com.arccore.a4.arm.bundle-win32.win32.x86_64/msys/opt/arm-none-eabi/bin/../lib/gcc/arm-none-eabi/4.8.2/../../../../arm-none-eabi/lib/thumb/armv7-m\libc.a(lib_a-mallocr.o)
 .ARM.attributes
                0x000013fe       0x2d d:/research/pwc/arccore/com.arccore.a4.arm.bundle-win32.win32.x86_64/msys/opt/arm-none-eabi/bin/../lib/gcc/arm-none-eabi/4.8.2/../../../../arm-none-eabi/lib/thumb/armv7-m\libc.a(lib_a-memcmp.o)
 .ARM.attributes
                0x0000142b       0x2d d:/research/pwc/arccore/com.arccore.a4.arm.bundle-win32.win32.x86_64/msys/opt/arm-none-eabi/bin/../lib/gcc/arm-none-eabi/4.8.2/../../../../arm-none-eabi/lib/thumb/armv7-m\libc.a(lib_a-memcpy-stub.o)
 .ARM.attributes
                0x00001458       0x2d d:/research/pwc/arccore/com.arccore.a4.arm.bundle-win32.win32.x86_64/msys/opt/arm-none-eabi/bin/../lib/gcc/arm-none-eabi/4.8.2/../../../../arm-none-eabi/lib/thumb/armv7-m\libc.a(lib_a-memset.o)
 .ARM.attributes
                0x00001485       0x2d d:/research/pwc/arccore/com.arccore.a4.arm.bundle-win32.win32.x86_64/msys/opt/arm-none-eabi/bin/../lib/gcc/arm-none-eabi/4.8.2/../../../../arm-none-eabi/lib/thumb/armv7-m\libc.a(lib_a-mlock.o)
 .ARM.attributes
                0x000014b2       0x2d d:/research/pwc/arccore/com.arccore.a4.arm.bundle-win32.win32.x86_64/msys/opt/arm-none-eabi/bin/../lib/gcc/arm-none-eabi/4.8.2/../../../../arm-none-eabi/lib/thumb/armv7-m\libc.a(lib_a-openr.o)
 .ARM.attributes
                0x000014df       0x2d d:/research/pwc/arccore/com.arccore.a4.arm.bundle-win32.win32.x86_64/msys/opt/arm-none-eabi/bin/../lib/gcc/arm-none-eabi/4.8.2/../../../../arm-none-eabi/lib/thumb/armv7-m\libc.a(lib_a-reent.o)
 .ARM.attributes
                0x0000150c       0x2d d:/research/pwc/arccore/com.arccore.a4.arm.bundle-win32.win32.x86_64/msys/opt/arm-none-eabi/bin/../lib/gcc/arm-none-eabi/4.8.2/../../../../arm-none-eabi/lib/thumb/armv7-m\libc.a(lib_a-refill.o)
 .ARM.attributes
                0x00001539       0x2d d:/research/pwc/arccore/com.arccore.a4.arm.bundle-win32.win32.x86_64/msys/opt/arm-none-eabi/bin/../lib/gcc/arm-none-eabi/4.8.2/../../../../arm-none-eabi/lib/thumb/armv7-m\libc.a(lib_a-sbrkr.o)
 .ARM.attributes
                0x00001566       0x2d d:/research/pwc/arccore/com.arccore.a4.arm.bundle-win32.win32.x86_64/msys/opt/arm-none-eabi/bin/../lib/gcc/arm-none-eabi/4.8.2/../../../../arm-none-eabi/lib/thumb/armv7-m\libc.a(lib_a-signal.o)
 .ARM.attributes
                0x00001593       0x2d d:/research/pwc/arccore/com.arccore.a4.arm.bundle-win32.win32.x86_64/msys/opt/arm-none-eabi/bin/../lib/gcc/arm-none-eabi/4.8.2/../../../../arm-none-eabi/lib/thumb/armv7-m\libc.a(lib_a-signalr.o)
 .ARM.attributes
                0x000015c0       0x2d d:/research/pwc/arccore/com.arccore.a4.arm.bundle-win32.win32.x86_64/msys/opt/arm-none-eabi/bin/../lib/gcc/arm-none-eabi/4.8.2/../../../../arm-none-eabi/lib/thumb/armv7-m\libc.a(lib_a-stdio.o)
 .ARM.attributes
                0x000015ed       0x2d d:/research/pwc/arccore/com.arccore.a4.arm.bundle-win32.win32.x86_64/msys/opt/arm-none-eabi/bin/../lib/gcc/arm-none-eabi/4.8.2/../../../../arm-none-eabi/lib/thumb/armv7-m\libc.a(lib_a-strcmp.o)
 .ARM.attributes
                0x0000161a       0x2d d:/research/pwc/arccore/com.arccore.a4.arm.bundle-win32.win32.x86_64/msys/opt/arm-none-eabi/bin/../lib/gcc/arm-none-eabi/4.8.2/../../../../arm-none-eabi/lib/thumb/armv7-m\libc.a(lib_a-strcpy.o)
 .ARM.attributes
                0x00001647       0x2d d:/research/pwc/arccore/com.arccore.a4.arm.bundle-win32.win32.x86_64/msys/opt/arm-none-eabi/bin/../lib/gcc/arm-none-eabi/4.8.2/../../../../arm-none-eabi/lib/thumb/armv7-m\libc.a(lib_a-strlen.o)
 .ARM.attributes
                0x00001674       0x2d d:/research/pwc/arccore/com.arccore.a4.arm.bundle-win32.win32.x86_64/msys/opt/arm-none-eabi/bin/../lib/gcc/arm-none-eabi/4.8.2/../../../../arm-none-eabi/lib/thumb/armv7-m\libc.a(lib_a-strncpy.o)
 .ARM.attributes
                0x000016a1       0x2d d:/research/pwc/arccore/com.arccore.a4.arm.bundle-win32.win32.x86_64/msys/opt/arm-none-eabi/bin/../lib/gcc/arm-none-eabi/4.8.2/../../../../arm-none-eabi/lib/thumb/armv7-m\libc.a(lib_a-strtoul.o)
 .ARM.attributes
                0x000016ce       0x2d d:/research/pwc/arccore/com.arccore.a4.arm.bundle-win32.win32.x86_64/msys/opt/arm-none-eabi/bin/../lib/gcc/arm-none-eabi/4.8.2/../../../../arm-none-eabi/lib/thumb/armv7-m\libc.a(lib_a-sysread.o)
 .ARM.attributes
                0x000016fb       0x2d d:/research/pwc/arccore/com.arccore.a4.arm.bundle-win32.win32.x86_64/msys/opt/arm-none-eabi/bin/../lib/gcc/arm-none-eabi/4.8.2/../../../../arm-none-eabi/lib/thumb/armv7-m\libc.a(lib_a-syswrite.o)
 .ARM.attributes
                0x00001728       0x2d d:/research/pwc/arccore/com.arccore.a4.arm.bundle-win32.win32.x86_64/msys/opt/arm-none-eabi/bin/../lib/gcc/arm-none-eabi/4.8.2/../../../../arm-none-eabi/lib/thumb/armv7-m\libc.a(lib_a-writer.o)
 .ARM.attributes
                0x00001755       0x2d d:/research/pwc/arccore/com.arccore.a4.arm.bundle-win32.win32.x86_64/msys/opt/arm-none-eabi/bin/../lib/gcc/arm-none-eabi/4.8.2/../../../../arm-none-eabi/lib/thumb/armv7-m\libc.a(lib_a-closer.o)
 .ARM.attributes
                0x00001782       0x2d d:/research/pwc/arccore/com.arccore.a4.arm.bundle-win32.win32.x86_64/msys/opt/arm-none-eabi/bin/../lib/gcc/arm-none-eabi/4.8.2/../../../../arm-none-eabi/lib/thumb/armv7-m\libc.a(lib_a-ctype_.o)
 .ARM.attributes
                0x000017af       0x2d d:/research/pwc/arccore/com.arccore.a4.arm.bundle-win32.win32.x86_64/msys/opt/arm-none-eabi/bin/../lib/gcc/arm-none-eabi/4.8.2/../../../../arm-none-eabi/lib/thumb/armv7-m\libc.a(lib_a-fflush.o)
 .ARM.attributes
                0x000017dc       0x2d d:/research/pwc/arccore/com.arccore.a4.arm.bundle-win32.win32.x86_64/msys/opt/arm-none-eabi/bin/../lib/gcc/arm-none-eabi/4.8.2/../../../../arm-none-eabi/lib/thumb/armv7-m\libc.a(lib_a-findfp.o)
 .ARM.attributes
                0x00001809       0x2d d:/research/pwc/arccore/com.arccore.a4.arm.bundle-win32.win32.x86_64/msys/opt/arm-none-eabi/bin/../lib/gcc/arm-none-eabi/4.8.2/../../../../arm-none-eabi/lib/thumb/armv7-m\libc.a(lib_a-flags.o)
 .ARM.attributes
                0x00001836       0x2d d:/research/pwc/arccore/com.arccore.a4.arm.bundle-win32.win32.x86_64/msys/opt/arm-none-eabi/bin/../lib/gcc/arm-none-eabi/4.8.2/../../../../arm-none-eabi/lib/thumb/armv7-m\libc.a(lib_a-freer.o)
 .ARM.attributes
                0x00001863       0x2d d:/research/pwc/arccore/com.arccore.a4.arm.bundle-win32.win32.x86_64/msys/opt/arm-none-eabi/bin/../lib/gcc/arm-none-eabi/4.8.2/../../../../arm-none-eabi/lib/thumb/armv7-m\libc.a(lib_a-fwalk.o)
 .ARM.attributes
                0x00001890       0x2d d:/research/pwc/arccore/com.arccore.a4.arm.bundle-win32.win32.x86_64/msys/opt/arm-none-eabi/bin/../lib/gcc/arm-none-eabi/4.8.2/../../../../arm-none-eabi/lib/thumb/armv7-m\libc.a(lib_a-isattyr.o)
 .ARM.attributes
                0x000018bd       0x2d d:/research/pwc/arccore/com.arccore.a4.arm.bundle-win32.win32.x86_64/msys/opt/arm-none-eabi/bin/../lib/gcc/arm-none-eabi/4.8.2/../../../../arm-none-eabi/lib/thumb/armv7-m\libc.a(lib_a-lseekr.o)
 .ARM.attributes
                0x000018ea       0x2d d:/research/pwc/arccore/com.arccore.a4.arm.bundle-win32.win32.x86_64/msys/opt/arm-none-eabi/bin/../lib/gcc/arm-none-eabi/4.8.2/../../../../arm-none-eabi/lib/thumb/armv7-m\libc.a(lib_a-readr.o)
 .ARM.attributes
                0x00001917       0x2d d:/research/pwc/arccore/com.arccore.a4.arm.bundle-win32.win32.x86_64/msys/opt/arm-none-eabi/bin/../lib/gcc/arm-none-eabi/4.8.2/../../../../arm-none-eabi/lib/thumb/armv7-m\libc.a(lib_a-fclose.o)

.debug
 *(.debug)

.line
 *(.line)

.debug_srcinfo
 *(.debug_srcinfo)

.debug_sfnames
 *(.debug_sfnames)

.debug_aranges  0x00000000     0x25e8
 *(.debug_aranges)
 .debug_aranges
                0x00000000       0x28 Rte.o
 .debug_aranges
                0x00000028       0x28 Rte_Main.o
 .debug_aranges
                0x00000050       0x20 Rte_Calprms.o
 .debug_aranges
                0x00000070       0xd8 Rte_Internal.o
 .debug_aranges
                0x00000148       0x18 Rte_Callbacks.o
 .debug_aranges
                0x00000160       0x50 Rte_Fifo.o
 .debug_aranges
                0x000001b0       0x20 Rte_EndStopDtcType.o
 .debug_aranges
                0x000001d0       0x28 Rte_IoHwAb.o
 .debug_aranges
                0x000001f8       0x20 Rte_MotorDriverType.o
 .debug_aranges
                0x00000218       0x20 Rte_ObstacleDtcType.o
 .debug_aranges
                0x00000238       0x20 Rte_SwitchType.o
 .debug_aranges
                0x00000258       0x20 Rte_WinArbitratorType.o
 .debug_aranges
                0x00000278       0x20 Rte_WinControllerType.o
 .debug_aranges
                0x00000298       0x30 EndStopDtc.o
 .debug_aranges
                0x000002c8       0x28 IoHwAb.o
 .debug_aranges
                0x000002f0       0x38 MotorDriver.o
 .debug_aranges
                0x00000328       0x30 ObstacleDtc.o
 .debug_aranges
                0x00000358       0x28 Switch.o
 .debug_aranges
                0x00000380       0x58 Tasks.o
 .debug_aranges
                0x000003d8       0x38 WinArbitrator.o
 .debug_aranges
                0x00000410       0x50 WinController.o
 .debug_aranges
                0x00000460       0x78 stm3210c_eval.o
 .debug_aranges
                0x000004d8      0x130 stm3210c_eval_ioe.o
 .debug_aranges
                0x00000608       0x38 system_stm32f10x.o
 .debug_aranges
                0x00000640       0x40 misc.o
 .debug_aranges
                0x00000680       0x58 stm32f10x_exti.o
 .debug_aranges
                0x000006d8      0x100 stm32f10x_usart.o
 .debug_aranges
                0x000007d8      0x118 stm32f10x_i2c.o
 .debug_aranges
                0x000008f0       0xd0 stm32f10x_spi.o
 .debug_aranges
                0x000009c0       0x70 stm32f10x_dma.o
 .debug_aranges
                0x00000a30       0xb8 core_cm3.o
 .debug_aranges
                0x00000ae8       0x28 startup_stm32f10x.o
 .debug_aranges
                0x00000b10      0x160 stm32f10x_rcc.o
 .debug_aranges
                0x00000c70       0x18 Os_Cfg.o
 .debug_aranges
                0x00000c88       0x88 EcuM.o
 .debug_aranges
                0x00000d10       0x58 EcuM_Fixed.o
 .debug_aranges
                0x00000d68       0xa0 EcuM_Main.o
 .debug_aranges
                0x00000e08       0x18 EcuM_PBcfg.o
 .debug_aranges
                0x00000e20       0x18 EcuM_PBHeader.o
 .debug_aranges
                0x00000e38       0xe8 EcuM_Callout_Stubs.o
 .debug_aranges
                0x00000f20       0xd0 Mcu.o
 .debug_aranges
                0x00000ff0       0x18 Mcu_LCfg.o
 .debug_aranges
                0x00001008       0x18 Mcu_PBcfg.o
 .debug_aranges
                0x00001020       0x68 Dio.o
 .debug_aranges
                0x00001088       0x18 Dio_Lcfg.o
 .debug_aranges
                0x000010a0       0x38 Port.o
 .debug_aranges
                0x000010d8       0x18 Port_Lcfg.o
 .debug_aranges
                0x000010f0       0x18 Port_PBcfg.o
 .debug_aranges
                0x00001108       0x20 arch_krn.o
 .debug_aranges
                0x00001128       0x70 os_event.o
 .debug_aranges
                0x00001198       0x58 os_init.o
 .debug_aranges
                0x000011f0       0x50 arch.o
 .debug_aranges
                0x00001240      0x168 os_task.o
 .debug_aranges
                0x000013a8       0x88 os_resource.o
 .debug_aranges
                0x00001430       0xa0 os_alarm.o
 .debug_aranges
                0x000014d0       0xb8 os_sched_table.o
 .debug_aranges
                0x00001588       0x88 os_counter.o
 .debug_aranges
                0x00001610       0x30 sys_tick.o
 .debug_aranges
                0x00001640       0xd0 os_isr.o
 .debug_aranges
                0x00001710       0x30 os_arctest.o
 .debug_aranges
                0x00001740       0xc8 os_application.o
 .debug_aranges
                0x00001808       0x60 irq.o
 .debug_aranges
                0x00001868       0x48 Det.o
 .debug_aranges
                0x000018b0       0x18 Det_Cfg.o
 .debug_aranges
                0x000018c8       0x18 Com_Cfg.o
 .debug_aranges
                0x000018e0       0x18 Com_PbCfg.o
 .debug_aranges
                0x000018f8       0xd8 Com_Com.o
 .debug_aranges
                0x000019d0       0x48 Com_Sched.o
 .debug_aranges
                0x00001a18       0x80 Com.o
 .debug_aranges
                0x00001a98       0x78 Com_misc.o
 .debug_aranges
                0x00001b10       0x30 PduR_CanNm.o
 .debug_aranges
                0x00001b40       0x38 PduR_Com.o
 .debug_aranges
                0x00001b78       0xe8 PduR_Logic.o
 .debug_aranges
                0x00001c60       0x18 PduR_LinIf.o
 .debug_aranges
                0x00001c78       0x18 PduR_PbCfg.o
 .debug_aranges
                0x00001c90       0x18 PduR_Cfg.o
 .debug_aranges
                0x00001ca8       0x18 PduR_CanIf.o
 .debug_aranges
                0x00001cc0       0x18 PduR_CanTp.o
 .debug_aranges
                0x00001cd8       0x18 PduR_J1939Tp.o
 .debug_aranges
                0x00001cf0       0x18 PduR_IpduM.o
 .debug_aranges
                0x00001d08       0x18 PduR_Dcm.o
 .debug_aranges
                0x00001d20       0x18 PduR_SoAd.o
 .debug_aranges
                0x00001d38       0x50 PduR_Routing.o
 .debug_aranges
                0x00001d88       0x38 PduR.o
 .debug_aranges
                0x00001dc0       0xb0 IoHwAb_Digital.o
 .debug_aranges
                0x00001e70       0x50 ramlog.o
 .debug_aranges
                0x00001ec0       0x70 cirq_buffer.o
 .debug_aranges
                0x00001f30       0x80 clib_port.o
 .debug_aranges
                0x00001fb0       0x18 clib.o
 .debug_aranges
                0x00001fc8       0x98 printf.o
 .debug_aranges
                0x00002060       0x30 xtoa.o
 .debug_aranges
                0x00002090       0xa8 stm32f10x_gpio.o
 .debug_aranges
                0x00002138       0x20 d:/research/pwc/arccore/com.arccore.a4.arm.bundle-win32.win32.x86_64/msys/opt/arm-none-eabi/bin/../lib/gcc/arm-none-eabi/4.8.2/../../../../arm-none-eabi/lib/thumb/armv7-m\libc.a(lib_a-abort.o)
 .debug_aranges
                0x00002158       0x20 d:/research/pwc/arccore/com.arccore.a4.arm.bundle-win32.win32.x86_64/msys/opt/arm-none-eabi/bin/../lib/gcc/arm-none-eabi/4.8.2/../../../../arm-none-eabi/lib/thumb/armv7-m\libc.a(lib_a-fopen.o)
 .debug_aranges
                0x00002178       0x20 d:/research/pwc/arccore/com.arccore.a4.arm.bundle-win32.win32.x86_64/msys/opt/arm-none-eabi/bin/../lib/gcc/arm-none-eabi/4.8.2/../../../../arm-none-eabi/lib/thumb/armv7-m\libc.a(lib_a-fseek.o)
 .debug_aranges
                0x00002198       0x20 d:/research/pwc/arccore/com.arccore.a4.arm.bundle-win32.win32.x86_64/msys/opt/arm-none-eabi/bin/../lib/gcc/arm-none-eabi/4.8.2/../../../../arm-none-eabi/lib/thumb/armv7-m\libc.a(lib_a-fstatr.o)
 .debug_aranges
                0x000021b8       0x18 d:/research/pwc/arccore/com.arccore.a4.arm.bundle-win32.win32.x86_64/msys/opt/arm-none-eabi/bin/../lib/gcc/arm-none-eabi/4.8.2/../../../../arm-none-eabi/lib/thumb/armv7-m\libc.a(lib_a-impure.o)
 .debug_aranges
                0x000021d0       0x20 d:/research/pwc/arccore/com.arccore.a4.arm.bundle-win32.win32.x86_64/msys/opt/arm-none-eabi/bin/../lib/gcc/arm-none-eabi/4.8.2/../../../../arm-none-eabi/lib/thumb/armv7-m\libc.a(lib_a-makebuf.o)
 .debug_aranges
                0x000021f0       0x20 d:/research/pwc/arccore/com.arccore.a4.arm.bundle-win32.win32.x86_64/msys/opt/arm-none-eabi/bin/../lib/gcc/arm-none-eabi/4.8.2/../../../../arm-none-eabi/lib/thumb/armv7-m\libc.a(lib_a-malloc.o)
 .debug_aranges
                0x00002210       0x20 d:/research/pwc/arccore/com.arccore.a4.arm.bundle-win32.win32.x86_64/msys/opt/arm-none-eabi/bin/../lib/gcc/arm-none-eabi/4.8.2/../../../../arm-none-eabi/lib/thumb/armv7-m\libc.a(lib_a-mallocr.o)
 .debug_aranges
                0x00002230       0x20 d:/research/pwc/arccore/com.arccore.a4.arm.bundle-win32.win32.x86_64/msys/opt/arm-none-eabi/bin/../lib/gcc/arm-none-eabi/4.8.2/../../../../arm-none-eabi/lib/thumb/armv7-m\libc.a(lib_a-memcmp.o)
 .debug_aranges
                0x00002250       0x20 d:/research/pwc/arccore/com.arccore.a4.arm.bundle-win32.win32.x86_64/msys/opt/arm-none-eabi/bin/../lib/gcc/arm-none-eabi/4.8.2/../../../../arm-none-eabi/lib/thumb/armv7-m\libc.a(lib_a-memcpy-stub.o)
 .debug_aranges
                0x00002270       0x20 d:/research/pwc/arccore/com.arccore.a4.arm.bundle-win32.win32.x86_64/msys/opt/arm-none-eabi/bin/../lib/gcc/arm-none-eabi/4.8.2/../../../../arm-none-eabi/lib/thumb/armv7-m\libc.a(lib_a-memset.o)
 .debug_aranges
                0x00002290       0x20 d:/research/pwc/arccore/com.arccore.a4.arm.bundle-win32.win32.x86_64/msys/opt/arm-none-eabi/bin/../lib/gcc/arm-none-eabi/4.8.2/../../../../arm-none-eabi/lib/thumb/armv7-m\libc.a(lib_a-mlock.o)
 .debug_aranges
                0x000022b0       0x20 d:/research/pwc/arccore/com.arccore.a4.arm.bundle-win32.win32.x86_64/msys/opt/arm-none-eabi/bin/../lib/gcc/arm-none-eabi/4.8.2/../../../../arm-none-eabi/lib/thumb/armv7-m\libc.a(lib_a-openr.o)
 .debug_aranges
                0x000022d0       0x20 d:/research/pwc/arccore/com.arccore.a4.arm.bundle-win32.win32.x86_64/msys/opt/arm-none-eabi/bin/../lib/gcc/arm-none-eabi/4.8.2/../../../../arm-none-eabi/lib/thumb/armv7-m\libc.a(lib_a-reent.o)
 .debug_aranges
                0x000022f0       0x20 d:/research/pwc/arccore/com.arccore.a4.arm.bundle-win32.win32.x86_64/msys/opt/arm-none-eabi/bin/../lib/gcc/arm-none-eabi/4.8.2/../../../../arm-none-eabi/lib/thumb/armv7-m\libc.a(lib_a-refill.o)
 .debug_aranges
                0x00002310       0x20 d:/research/pwc/arccore/com.arccore.a4.arm.bundle-win32.win32.x86_64/msys/opt/arm-none-eabi/bin/../lib/gcc/arm-none-eabi/4.8.2/../../../../arm-none-eabi/lib/thumb/armv7-m\libc.a(lib_a-sbrkr.o)
 .debug_aranges
                0x00002330       0x20 d:/research/pwc/arccore/com.arccore.a4.arm.bundle-win32.win32.x86_64/msys/opt/arm-none-eabi/bin/../lib/gcc/arm-none-eabi/4.8.2/../../../../arm-none-eabi/lib/thumb/armv7-m\libc.a(lib_a-signal.o)
 .debug_aranges
                0x00002350       0x20 d:/research/pwc/arccore/com.arccore.a4.arm.bundle-win32.win32.x86_64/msys/opt/arm-none-eabi/bin/../lib/gcc/arm-none-eabi/4.8.2/../../../../arm-none-eabi/lib/thumb/armv7-m\libc.a(lib_a-signalr.o)
 .debug_aranges
                0x00002370       0x20 d:/research/pwc/arccore/com.arccore.a4.arm.bundle-win32.win32.x86_64/msys/opt/arm-none-eabi/bin/../lib/gcc/arm-none-eabi/4.8.2/../../../../arm-none-eabi/lib/thumb/armv7-m\libc.a(lib_a-stdio.o)
 .debug_aranges
                0x00002390       0x20 d:/research/pwc/arccore/com.arccore.a4.arm.bundle-win32.win32.x86_64/msys/opt/arm-none-eabi/bin/../lib/gcc/arm-none-eabi/4.8.2/../../../../arm-none-eabi/lib/thumb/armv7-m\libc.a(lib_a-strcmp.o)
 .debug_aranges
                0x000023b0       0x20 d:/research/pwc/arccore/com.arccore.a4.arm.bundle-win32.win32.x86_64/msys/opt/arm-none-eabi/bin/../lib/gcc/arm-none-eabi/4.8.2/../../../../arm-none-eabi/lib/thumb/armv7-m\libc.a(lib_a-strcpy.o)
 .debug_aranges
                0x000023d0       0x20 d:/research/pwc/arccore/com.arccore.a4.arm.bundle-win32.win32.x86_64/msys/opt/arm-none-eabi/bin/../lib/gcc/arm-none-eabi/4.8.2/../../../../arm-none-eabi/lib/thumb/armv7-m\libc.a(lib_a-strlen.o)
 .debug_aranges
                0x000023f0       0x20 d:/research/pwc/arccore/com.arccore.a4.arm.bundle-win32.win32.x86_64/msys/opt/arm-none-eabi/bin/../lib/gcc/arm-none-eabi/4.8.2/../../../../arm-none-eabi/lib/thumb/armv7-m\libc.a(lib_a-strncpy.o)
 .debug_aranges
                0x00002410       0x20 d:/research/pwc/arccore/com.arccore.a4.arm.bundle-win32.win32.x86_64/msys/opt/arm-none-eabi/bin/../lib/gcc/arm-none-eabi/4.8.2/../../../../arm-none-eabi/lib/thumb/armv7-m\libc.a(lib_a-strtoul.o)
 .debug_aranges
                0x00002430       0x20 d:/research/pwc/arccore/com.arccore.a4.arm.bundle-win32.win32.x86_64/msys/opt/arm-none-eabi/bin/../lib/gcc/arm-none-eabi/4.8.2/../../../../arm-none-eabi/lib/thumb/armv7-m\libc.a(lib_a-sysread.o)
 .debug_aranges
                0x00002450       0x20 d:/research/pwc/arccore/com.arccore.a4.arm.bundle-win32.win32.x86_64/msys/opt/arm-none-eabi/bin/../lib/gcc/arm-none-eabi/4.8.2/../../../../arm-none-eabi/lib/thumb/armv7-m\libc.a(lib_a-syswrite.o)
 .debug_aranges
                0x00002470       0x20 d:/research/pwc/arccore/com.arccore.a4.arm.bundle-win32.win32.x86_64/msys/opt/arm-none-eabi/bin/../lib/gcc/arm-none-eabi/4.8.2/../../../../arm-none-eabi/lib/thumb/armv7-m\libc.a(lib_a-writer.o)
 .debug_aranges
                0x00002490       0x20 d:/research/pwc/arccore/com.arccore.a4.arm.bundle-win32.win32.x86_64/msys/opt/arm-none-eabi/bin/../lib/gcc/arm-none-eabi/4.8.2/../../../../arm-none-eabi/lib/thumb/armv7-m\libc.a(lib_a-closer.o)
 .debug_aranges
                0x000024b0       0x18 d:/research/pwc/arccore/com.arccore.a4.arm.bundle-win32.win32.x86_64/msys/opt/arm-none-eabi/bin/../lib/gcc/arm-none-eabi/4.8.2/../../../../arm-none-eabi/lib/thumb/armv7-m\libc.a(lib_a-ctype_.o)
 .debug_aranges
                0x000024c8       0x20 d:/research/pwc/arccore/com.arccore.a4.arm.bundle-win32.win32.x86_64/msys/opt/arm-none-eabi/bin/../lib/gcc/arm-none-eabi/4.8.2/../../../../arm-none-eabi/lib/thumb/armv7-m\libc.a(lib_a-fflush.o)
 .debug_aranges
                0x000024e8       0x20 d:/research/pwc/arccore/com.arccore.a4.arm.bundle-win32.win32.x86_64/msys/opt/arm-none-eabi/bin/../lib/gcc/arm-none-eabi/4.8.2/../../../../arm-none-eabi/lib/thumb/armv7-m\libc.a(lib_a-findfp.o)
 .debug_aranges
                0x00002508       0x20 d:/research/pwc/arccore/com.arccore.a4.arm.bundle-win32.win32.x86_64/msys/opt/arm-none-eabi/bin/../lib/gcc/arm-none-eabi/4.8.2/../../../../arm-none-eabi/lib/thumb/armv7-m\libc.a(lib_a-flags.o)
 .debug_aranges
                0x00002528       0x20 d:/research/pwc/arccore/com.arccore.a4.arm.bundle-win32.win32.x86_64/msys/opt/arm-none-eabi/bin/../lib/gcc/arm-none-eabi/4.8.2/../../../../arm-none-eabi/lib/thumb/armv7-m\libc.a(lib_a-freer.o)
 .debug_aranges
                0x00002548       0x20 d:/research/pwc/arccore/com.arccore.a4.arm.bundle-win32.win32.x86_64/msys/opt/arm-none-eabi/bin/../lib/gcc/arm-none-eabi/4.8.2/../../../../arm-none-eabi/lib/thumb/armv7-m\libc.a(lib_a-fwalk.o)
 .debug_aranges
                0x00002568       0x20 d:/research/pwc/arccore/com.arccore.a4.arm.bundle-win32.win32.x86_64/msys/opt/arm-none-eabi/bin/../lib/gcc/arm-none-eabi/4.8.2/../../../../arm-none-eabi/lib/thumb/armv7-m\libc.a(lib_a-isattyr.o)
 .debug_aranges
                0x00002588       0x20 d:/research/pwc/arccore/com.arccore.a4.arm.bundle-win32.win32.x86_64/msys/opt/arm-none-eabi/bin/../lib/gcc/arm-none-eabi/4.8.2/../../../../arm-none-eabi/lib/thumb/armv7-m\libc.a(lib_a-lseekr.o)
 .debug_aranges
                0x000025a8       0x20 d:/research/pwc/arccore/com.arccore.a4.arm.bundle-win32.win32.x86_64/msys/opt/arm-none-eabi/bin/../lib/gcc/arm-none-eabi/4.8.2/../../../../arm-none-eabi/lib/thumb/armv7-m\libc.a(lib_a-readr.o)
 .debug_aranges
                0x000025c8       0x20 d:/research/pwc/arccore/com.arccore.a4.arm.bundle-win32.win32.x86_64/msys/opt/arm-none-eabi/bin/../lib/gcc/arm-none-eabi/4.8.2/../../../../arm-none-eabi/lib/thumb/armv7-m\libc.a(lib_a-fclose.o)

.debug_pubnames
 *(.debug_pubnames)

.debug_info     0x00000000    0x46c7b
 *(.debug_info .gnu.linkonce.wi.*)
 .debug_info    0x00000000      0x2d6 Rte.o
 .debug_info    0x000002d6       0xfc Rte_Main.o
 .debug_info    0x000003d2       0xa5 Rte_Calprms.o
 .debug_info    0x00000477      0x834 Rte_Internal.o
 .debug_info    0x00000cab      0x257 Rte_Callbacks.o
 .debug_info    0x00000f02      0x44c Rte_Fifo.o
 .debug_info    0x0000134e      0x374 Rte_EndStopDtcType.o
 .debug_info    0x000016c2      0x3bd Rte_IoHwAb.o
 .debug_info    0x00001a7f      0x384 Rte_MotorDriverType.o
 .debug_info    0x00001e03      0x374 Rte_ObstacleDtcType.o
 .debug_info    0x00002177      0x390 Rte_SwitchType.o
 .debug_info    0x00002507      0x3f6 Rte_WinArbitratorType.o
 .debug_info    0x000028fd      0x4bf Rte_WinControllerType.o
 .debug_info    0x00002dbc      0x207 EndStopDtc.o
 .debug_info    0x00002fc3       0xd2 IoHwAb.o
 .debug_info    0x00003095      0x1f6 MotorDriver.o
 .debug_info    0x0000328b      0x207 ObstacleDtc.o
 .debug_info    0x00003492      0x1d6 Switch.o
 .debug_info    0x00003668      0x476 Tasks.o
 .debug_info    0x00003ade      0x2e8 WinArbitrator.o
 .debug_info    0x00003dc6      0x4af WinController.o
 .debug_info    0x00004275      0xf44 stm3210c_eval.o
 .debug_info    0x000051b9     0x11de stm3210c_eval_ioe.o
 .debug_info    0x00006397      0x4c0 system_stm32f10x.o
 .debug_info    0x00006857      0x52b misc.o
 .debug_info    0x00006d82      0x34f stm32f10x_exti.o
 .debug_info    0x000070d1      0xa6f stm32f10x_usart.o
 .debug_info    0x00007b40      0xb61 stm32f10x_i2c.o
 .debug_info    0x000086a1      0xa3c stm32f10x_spi.o
 .debug_info    0x000090dd      0x493 stm32f10x_dma.o
 .debug_info    0x00009570      0x4c4 core_cm3.o
 .debug_info    0x00009a34       0x9e startup_stm32f10x.o
 .debug_info    0x00009ad2      0xb42 stm32f10x_rcc.o
 .debug_info    0x0000a614     0x163e Os_Cfg.o
 .debug_info    0x0000bc52     0x16b0 EcuM.o
 .debug_info    0x0000d302     0x1574 EcuM_Fixed.o
 .debug_info    0x0000e876     0x177b EcuM_Main.o
 .debug_info    0x0000fff1     0x139f EcuM_PBcfg.o
 .debug_info    0x00011390      0xa3d EcuM_PBHeader.o
 .debug_info    0x00011dcd     0x17c6 EcuM_Callout_Stubs.o
 .debug_info    0x00013593      0xbd4 Mcu.o
 .debug_info    0x00014167       0x83 Mcu_LCfg.o
 .debug_info    0x000141ea      0x29f Mcu_PBcfg.o
 .debug_info    0x00014489      0x54b Dio.o
 .debug_info    0x000149d4      0x235 Dio_Lcfg.o
 .debug_info    0x00014c09      0x6bb Port.o
 .debug_info    0x000152c4       0x7c Port_Lcfg.o
 .debug_info    0x00015340      0x40d Port_PBcfg.o
 .debug_info    0x0001574d       0x62 arch_krn.o
 .debug_info    0x000157af     0x16e5 os_event.o
 .debug_info    0x00016e94     0x1604 os_init.o
 .debug_info    0x00018498     0x1437 arch.o
 .debug_info    0x000198cf     0x1e99 os_task.o
 .debug_info    0x0001b768     0x176b os_resource.o
 .debug_info    0x0001ced3     0x194e os_alarm.o
 .debug_info    0x0001e821     0x19f8 os_sched_table.o
 .debug_info    0x00020219     0x17a3 os_counter.o
 .debug_info    0x000219bc     0x15e8 sys_tick.o
 .debug_info    0x00022fa4     0x1ac7 os_isr.o
 .debug_info    0x00024a6b     0x13de os_arctest.o
 .debug_info    0x00025e49     0x1b31 os_application.o
 .debug_info    0x0002797a     0x19ff irq.o
 .debug_info    0x00029379      0x2ba Det.o
 .debug_info    0x00029633       0x7c Det_Cfg.o
 .debug_info    0x000296af      0x1aa Com_Cfg.o
 .debug_info    0x00029859      0x7ab Com_PbCfg.o
 .debug_info    0x0002a004     0x14be Com_Com.o
 .debug_info    0x0002b4c2      0xb73 Com_Sched.o
 .debug_info    0x0002c035     0x107f Com.o
 .debug_info    0x0002d0b4     0x10be Com_misc.o
 .debug_info    0x0002e172      0x1af PduR_CanNm.o
 .debug_info    0x0002e321      0x219 PduR_Com.o
 .debug_info    0x0002e53a     0x1136 PduR_Logic.o
 .debug_info    0x0002f670       0x83 PduR_LinIf.o
 .debug_info    0x0002f6f3      0x3d7 PduR_PbCfg.o
 .debug_info    0x0002faca      0x29e PduR_Cfg.o
 .debug_info    0x0002fd68       0x83 PduR_CanIf.o
 .debug_info    0x0002fdeb       0x83 PduR_CanTp.o
 .debug_info    0x0002fe6e       0x87 PduR_J1939Tp.o
 .debug_info    0x0002fef5       0x83 PduR_IpduM.o
 .debug_info    0x0002ff78       0x83 PduR_Dcm.o
 .debug_info    0x0002fffb       0x87 PduR_SoAd.o
 .debug_info    0x00030082      0x5bc PduR_Routing.o
 .debug_info    0x0003063e      0x5e8 PduR.o
 .debug_info    0x00030c26      0x86e IoHwAb_Digital.o
 .debug_info    0x00031494      0x3ec ramlog.o
 .debug_info    0x00031880      0x3b4 cirq_buffer.o
 .debug_info    0x00031c34      0x92a clib_port.o
 .debug_info    0x0003255e       0xee clib.o
 .debug_info    0x0003264c      0x9bc printf.o
 .debug_info    0x00033008      0x183 xtoa.o
 .debug_info    0x0003318b      0x71b stm32f10x_gpio.o
 .debug_info    0x000338a6       0x90 d:/research/pwc/arccore/com.arccore.a4.arm.bundle-win32.win32.x86_64/msys/opt/arm-none-eabi/bin/../lib/gcc/arm-none-eabi/4.8.2/../../../../arm-none-eabi/lib/thumb/armv7-m\libc.a(lib_a-abort.o)
 .debug_info    0x00033936      0xa08 d:/research/pwc/arccore/com.arccore.a4.arm.bundle-win32.win32.x86_64/msys/opt/arm-none-eabi/bin/../lib/gcc/arm-none-eabi/4.8.2/../../../../arm-none-eabi/lib/thumb/armv7-m\libc.a(lib_a-fopen.o)
 .debug_info    0x0003433e      0xc01 d:/research/pwc/arccore/com.arccore.a4.arm.bundle-win32.win32.x86_64/msys/opt/arm-none-eabi/bin/../lib/gcc/arm-none-eabi/4.8.2/../../../../arm-none-eabi/lib/thumb/armv7-m\libc.a(lib_a-fseek.o)
 .debug_info    0x00034f3f      0xb38 d:/research/pwc/arccore/com.arccore.a4.arm.bundle-win32.win32.x86_64/msys/opt/arm-none-eabi/bin/../lib/gcc/arm-none-eabi/4.8.2/../../../../arm-none-eabi/lib/thumb/armv7-m\libc.a(lib_a-fstatr.o)
 .debug_info    0x00035a77      0x965 d:/research/pwc/arccore/com.arccore.a4.arm.bundle-win32.win32.x86_64/msys/opt/arm-none-eabi/bin/../lib/gcc/arm-none-eabi/4.8.2/../../../../arm-none-eabi/lib/thumb/armv7-m\libc.a(lib_a-impure.o)
 .debug_info    0x000363dc      0xb45 d:/research/pwc/arccore/com.arccore.a4.arm.bundle-win32.win32.x86_64/msys/opt/arm-none-eabi/bin/../lib/gcc/arm-none-eabi/4.8.2/../../../../arm-none-eabi/lib/thumb/armv7-m\libc.a(lib_a-makebuf.o)
 .debug_info    0x00036f21      0x9a0 d:/research/pwc/arccore/com.arccore.a4.arm.bundle-win32.win32.x86_64/msys/opt/arm-none-eabi/bin/../lib/gcc/arm-none-eabi/4.8.2/../../../../arm-none-eabi/lib/thumb/armv7-m\libc.a(lib_a-malloc.o)
 .debug_info    0x000378c1      0xcb9 d:/research/pwc/arccore/com.arccore.a4.arm.bundle-win32.win32.x86_64/msys/opt/arm-none-eabi/bin/../lib/gcc/arm-none-eabi/4.8.2/../../../../arm-none-eabi/lib/thumb/armv7-m\libc.a(lib_a-mallocr.o)
 .debug_info    0x0003857a      0x111 d:/research/pwc/arccore/com.arccore.a4.arm.bundle-win32.win32.x86_64/msys/opt/arm-none-eabi/bin/../lib/gcc/arm-none-eabi/4.8.2/../../../../arm-none-eabi/lib/thumb/armv7-m\libc.a(lib_a-memcmp.o)
 .debug_info    0x0003868b      0x131 d:/research/pwc/arccore/com.arccore.a4.arm.bundle-win32.win32.x86_64/msys/opt/arm-none-eabi/bin/../lib/gcc/arm-none-eabi/4.8.2/../../../../arm-none-eabi/lib/thumb/armv7-m\libc.a(lib_a-memcpy-stub.o)
 .debug_info    0x000387bc      0x116 d:/research/pwc/arccore/com.arccore.a4.arm.bundle-win32.win32.x86_64/msys/opt/arm-none-eabi/bin/../lib/gcc/arm-none-eabi/4.8.2/../../../../arm-none-eabi/lib/thumb/armv7-m\libc.a(lib_a-memset.o)
 .debug_info    0x000388d2      0x992 d:/research/pwc/arccore/com.arccore.a4.arm.bundle-win32.win32.x86_64/msys/opt/arm-none-eabi/bin/../lib/gcc/arm-none-eabi/4.8.2/../../../../arm-none-eabi/lib/thumb/armv7-m\libc.a(lib_a-mlock.o)
 .debug_info    0x00039264      0x9b2 d:/research/pwc/arccore/com.arccore.a4.arm.bundle-win32.win32.x86_64/msys/opt/arm-none-eabi/bin/../lib/gcc/arm-none-eabi/4.8.2/../../../../arm-none-eabi/lib/thumb/armv7-m\libc.a(lib_a-openr.o)
 .debug_info    0x00039c16      0xa53 d:/research/pwc/arccore/com.arccore.a4.arm.bundle-win32.win32.x86_64/msys/opt/arm-none-eabi/bin/../lib/gcc/arm-none-eabi/4.8.2/../../../../arm-none-eabi/lib/thumb/armv7-m\libc.a(lib_a-reent.o)
 .debug_info    0x0003a669      0x9d1 d:/research/pwc/arccore/com.arccore.a4.arm.bundle-win32.win32.x86_64/msys/opt/arm-none-eabi/bin/../lib/gcc/arm-none-eabi/4.8.2/../../../../arm-none-eabi/lib/thumb/armv7-m\libc.a(lib_a-refill.o)
 .debug_info    0x0003b03a      0x9a6 d:/research/pwc/arccore/com.arccore.a4.arm.bundle-win32.win32.x86_64/msys/opt/arm-none-eabi/bin/../lib/gcc/arm-none-eabi/4.8.2/../../../../arm-none-eabi/lib/thumb/armv7-m\libc.a(lib_a-sbrkr.o)
 .debug_info    0x0003b9e0      0xb1b d:/research/pwc/arccore/com.arccore.a4.arm.bundle-win32.win32.x86_64/msys/opt/arm-none-eabi/bin/../lib/gcc/arm-none-eabi/4.8.2/../../../../arm-none-eabi/lib/thumb/armv7-m\libc.a(lib_a-signal.o)
 .debug_info    0x0003c4fb      0x9ee d:/research/pwc/arccore/com.arccore.a4.arm.bundle-win32.win32.x86_64/msys/opt/arm-none-eabi/bin/../lib/gcc/arm-none-eabi/4.8.2/../../../../arm-none-eabi/lib/thumb/armv7-m\libc.a(lib_a-signalr.o)
 .debug_info    0x0003cee9      0xb33 d:/research/pwc/arccore/com.arccore.a4.arm.bundle-win32.win32.x86_64/msys/opt/arm-none-eabi/bin/../lib/gcc/arm-none-eabi/4.8.2/../../../../arm-none-eabi/lib/thumb/armv7-m\libc.a(lib_a-stdio.o)
 .debug_info    0x0003da1c       0xec d:/research/pwc/arccore/com.arccore.a4.arm.bundle-win32.win32.x86_64/msys/opt/arm-none-eabi/bin/../lib/gcc/arm-none-eabi/4.8.2/../../../../arm-none-eabi/lib/thumb/armv7-m\libc.a(lib_a-strcmp.o)
 .debug_info    0x0003db08       0xbf d:/research/pwc/arccore/com.arccore.a4.arm.bundle-win32.win32.x86_64/msys/opt/arm-none-eabi/bin/../lib/gcc/arm-none-eabi/4.8.2/../../../../arm-none-eabi/lib/thumb/armv7-m\libc.a(lib_a-strcpy.o)
 .debug_info    0x0003dbc7       0xb7 d:/research/pwc/arccore/com.arccore.a4.arm.bundle-win32.win32.x86_64/msys/opt/arm-none-eabi/bin/../lib/gcc/arm-none-eabi/4.8.2/../../../../arm-none-eabi/lib/thumb/armv7-m\libc.a(lib_a-strlen.o)
 .debug_info    0x0003dc7e      0x128 d:/research/pwc/arccore/com.arccore.a4.arm.bundle-win32.win32.x86_64/msys/opt/arm-none-eabi/bin/../lib/gcc/arm-none-eabi/4.8.2/../../../../arm-none-eabi/lib/thumb/armv7-m\libc.a(lib_a-strncpy.o)
 .debug_info    0x0003dda6      0xa52 d:/research/pwc/arccore/com.arccore.a4.arm.bundle-win32.win32.x86_64/msys/opt/arm-none-eabi/bin/../lib/gcc/arm-none-eabi/4.8.2/../../../../arm-none-eabi/lib/thumb/armv7-m\libc.a(lib_a-strtoul.o)
 .debug_info    0x0003e7f8      0x992 d:/research/pwc/arccore/com.arccore.a4.arm.bundle-win32.win32.x86_64/msys/opt/arm-none-eabi/bin/../lib/gcc/arm-none-eabi/4.8.2/../../../../arm-none-eabi/lib/thumb/armv7-m\libc.a(lib_a-sysread.o)
 .debug_info    0x0003f18a      0x999 d:/research/pwc/arccore/com.arccore.a4.arm.bundle-win32.win32.x86_64/msys/opt/arm-none-eabi/bin/../lib/gcc/arm-none-eabi/4.8.2/../../../../arm-none-eabi/lib/thumb/armv7-m\libc.a(lib_a-syswrite.o)
 .debug_info    0x0003fb23      0x9ce d:/research/pwc/arccore/com.arccore.a4.arm.bundle-win32.win32.x86_64/msys/opt/arm-none-eabi/bin/../lib/gcc/arm-none-eabi/4.8.2/../../../../arm-none-eabi/lib/thumb/armv7-m\libc.a(lib_a-writer.o)
 .debug_info    0x000404f1      0x995 d:/research/pwc/arccore/com.arccore.a4.arm.bundle-win32.win32.x86_64/msys/opt/arm-none-eabi/bin/../lib/gcc/arm-none-eabi/4.8.2/../../../../arm-none-eabi/lib/thumb/armv7-m\libc.a(lib_a-closer.o)
 .debug_info    0x00040e86       0x71 d:/research/pwc/arccore/com.arccore.a4.arm.bundle-win32.win32.x86_64/msys/opt/arm-none-eabi/bin/../lib/gcc/arm-none-eabi/4.8.2/../../../../arm-none-eabi/lib/thumb/armv7-m\libc.a(lib_a-ctype_.o)
 .debug_info    0x00040ef7      0xa6e d:/research/pwc/arccore/com.arccore.a4.arm.bundle-win32.win32.x86_64/msys/opt/arm-none-eabi/bin/../lib/gcc/arm-none-eabi/4.8.2/../../../../arm-none-eabi/lib/thumb/armv7-m\libc.a(lib_a-fflush.o)
 .debug_info    0x00041965      0xc64 d:/research/pwc/arccore/com.arccore.a4.arm.bundle-win32.win32.x86_64/msys/opt/arm-none-eabi/bin/../lib/gcc/arm-none-eabi/4.8.2/../../../../arm-none-eabi/lib/thumb/armv7-m\libc.a(lib_a-findfp.o)
 .debug_info    0x000425c9      0x9a2 d:/research/pwc/arccore/com.arccore.a4.arm.bundle-win32.win32.x86_64/msys/opt/arm-none-eabi/bin/../lib/gcc/arm-none-eabi/4.8.2/../../../../arm-none-eabi/lib/thumb/armv7-m\libc.a(lib_a-flags.o)
 .debug_info    0x00042f6b      0xbf2 d:/research/pwc/arccore/com.arccore.a4.arm.bundle-win32.win32.x86_64/msys/opt/arm-none-eabi/bin/../lib/gcc/arm-none-eabi/4.8.2/../../../../arm-none-eabi/lib/thumb/armv7-m\libc.a(lib_a-freer.o)
 .debug_info    0x00043b5d      0xa45 d:/research/pwc/arccore/com.arccore.a4.arm.bundle-win32.win32.x86_64/msys/opt/arm-none-eabi/bin/../lib/gcc/arm-none-eabi/4.8.2/../../../../arm-none-eabi/lib/thumb/armv7-m\libc.a(lib_a-fwalk.o)
 .debug_info    0x000445a2      0x995 d:/research/pwc/arccore/com.arccore.a4.arm.bundle-win32.win32.x86_64/msys/opt/arm-none-eabi/bin/../lib/gcc/arm-none-eabi/4.8.2/../../../../arm-none-eabi/lib/thumb/armv7-m\libc.a(lib_a-isattyr.o)
 .debug_info    0x00044f37      0x9bc d:/research/pwc/arccore/com.arccore.a4.arm.bundle-win32.win32.x86_64/msys/opt/arm-none-eabi/bin/../lib/gcc/arm-none-eabi/4.8.2/../../../../arm-none-eabi/lib/thumb/armv7-m\libc.a(lib_a-lseekr.o)
 .debug_info    0x000458f3      0x9c7 d:/research/pwc/arccore/com.arccore.a4.arm.bundle-win32.win32.x86_64/msys/opt/arm-none-eabi/bin/../lib/gcc/arm-none-eabi/4.8.2/../../../../arm-none-eabi/lib/thumb/armv7-m\libc.a(lib_a-readr.o)
 .debug_info    0x000462ba      0x9c1 d:/research/pwc/arccore/com.arccore.a4.arm.bundle-win32.win32.x86_64/msys/opt/arm-none-eabi/bin/../lib/gcc/arm-none-eabi/4.8.2/../../../../arm-none-eabi/lib/thumb/armv7-m\libc.a(lib_a-fclose.o)

.debug_abbrev   0x00000000     0xb011
 *(.debug_abbrev)
 .debug_abbrev  0x00000000       0xc5 Rte.o
 .debug_abbrev  0x000000c5       0x7c Rte_Main.o
 .debug_abbrev  0x00000141       0x42 Rte_Calprms.o
 .debug_abbrev  0x00000183      0x195 Rte_Internal.o
 .debug_abbrev  0x00000318       0x96 Rte_Callbacks.o
 .debug_abbrev  0x000003ae      0x13c Rte_Fifo.o
 .debug_abbrev  0x000004ea       0xf1 Rte_EndStopDtcType.o
 .debug_abbrev  0x000005db      0x113 Rte_IoHwAb.o
 .debug_abbrev  0x000006ee      0x10d Rte_MotorDriverType.o
 .debug_abbrev  0x000007fb       0xf1 Rte_ObstacleDtcType.o
 .debug_abbrev  0x000008ec      0x10d Rte_SwitchType.o
 .debug_abbrev  0x000009f9       0xfe Rte_WinArbitratorType.o
 .debug_abbrev  0x00000af7      0x10d Rte_WinControllerType.o
 .debug_abbrev  0x00000c04       0xe0 EndStopDtc.o
 .debug_abbrev  0x00000ce4       0x6b IoHwAb.o
 .debug_abbrev  0x00000d4f       0xf6 MotorDriver.o
 .debug_abbrev  0x00000e45       0xe0 ObstacleDtc.o
 .debug_abbrev  0x00000f25       0xdc Switch.o
 .debug_abbrev  0x00001001      0x173 Tasks.o
 .debug_abbrev  0x00001174      0x14c WinArbitrator.o
 .debug_abbrev  0x000012c0      0x12c WinController.o
 .debug_abbrev  0x000013ec      0x1bd stm3210c_eval.o
 .debug_abbrev  0x000015a9      0x1f1 stm3210c_eval_ioe.o
 .debug_abbrev  0x0000179a      0x168 system_stm32f10x.o
 .debug_abbrev  0x00001902      0x116 misc.o
 .debug_abbrev  0x00001a18      0x15c stm32f10x_exti.o
 .debug_abbrev  0x00001b74      0x16d stm32f10x_usart.o
 .debug_abbrev  0x00001ce1      0x16f stm32f10x_i2c.o
 .debug_abbrev  0x00001e50      0x189 stm32f10x_spi.o
 .debug_abbrev  0x00001fd9      0x160 stm32f10x_dma.o
 .debug_abbrev  0x00002139       0xe2 core_cm3.o
 .debug_abbrev  0x0000221b       0x12 startup_stm32f10x.o
 .debug_abbrev  0x0000222d      0x1ad stm32f10x_rcc.o
 .debug_abbrev  0x000023da      0x19b Os_Cfg.o
 .debug_abbrev  0x00002575      0x1fe EcuM.o
 .debug_abbrev  0x00002773      0x192 EcuM_Fixed.o
 .debug_abbrev  0x00002905      0x275 EcuM_Main.o
 .debug_abbrev  0x00002b7a      0x134 EcuM_PBcfg.o
 .debug_abbrev  0x00002cae       0xd3 EcuM_PBHeader.o
 .debug_abbrev  0x00002d81      0x244 EcuM_Callout_Stubs.o
 .debug_abbrev  0x00002fc5      0x2a4 Mcu.o
 .debug_abbrev  0x00003269       0x24 Mcu_LCfg.o
 .debug_abbrev  0x0000328d       0x9c Mcu_PBcfg.o
 .debug_abbrev  0x00003329      0x144 Dio.o
 .debug_abbrev  0x0000346d       0x98 Dio_Lcfg.o
 .debug_abbrev  0x00003505      0x181 Port.o
 .debug_abbrev  0x00003686       0x24 Port_Lcfg.o
 .debug_abbrev  0x000036aa       0xb1 Port_PBcfg.o
 .debug_abbrev  0x0000375b       0x14 arch_krn.o
 .debug_abbrev  0x0000376f      0x2a3 os_event.o
 .debug_abbrev  0x00003a12      0x299 os_init.o
 .debug_abbrev  0x00003cab      0x235 arch.o
 .debug_abbrev  0x00003ee0      0x3b0 os_task.o
 .debug_abbrev  0x00004290      0x2e2 os_resource.o
 .debug_abbrev  0x00004572      0x2c3 os_alarm.o
 .debug_abbrev  0x00004835      0x2f5 os_sched_table.o
 .debug_abbrev  0x00004b2a      0x2aa os_counter.o
 .debug_abbrev  0x00004dd4      0x1e7 sys_tick.o
 .debug_abbrev  0x00004fbb      0x387 os_isr.o
 .debug_abbrev  0x00005342      0x1e4 os_arctest.o
 .debug_abbrev  0x00005526      0x2f6 os_application.o
 .debug_abbrev  0x0000581c      0x2b7 irq.o
 .debug_abbrev  0x00005ad3      0x176 Det.o
 .debug_abbrev  0x00005c49       0x24 Det_Cfg.o
 .debug_abbrev  0x00005c6d       0x7d Com_Cfg.o
 .debug_abbrev  0x00005cea       0xc4 Com_PbCfg.o
 .debug_abbrev  0x00005dae      0x25d Com_Com.o
 .debug_abbrev  0x0000600b      0x1af Com_Sched.o
 .debug_abbrev  0x000061ba      0x25a Com.o
 .debug_abbrev  0x00006414      0x20e Com_misc.o
 .debug_abbrev  0x00006622       0x9f PduR_CanNm.o
 .debug_abbrev  0x000066c1       0xd8 PduR_Com.o
 .debug_abbrev  0x00006799      0x207 PduR_Logic.o
 .debug_abbrev  0x000069a0       0x24 PduR_LinIf.o
 .debug_abbrev  0x000069c4       0x9d PduR_PbCfg.o
 .debug_abbrev  0x00006a61       0x96 PduR_Cfg.o
 .debug_abbrev  0x00006af7       0x24 PduR_CanIf.o
 .debug_abbrev  0x00006b1b       0x24 PduR_CanTp.o
 .debug_abbrev  0x00006b3f       0x26 PduR_J1939Tp.o
 .debug_abbrev  0x00006b65       0x24 PduR_IpduM.o
 .debug_abbrev  0x00006b89       0x24 PduR_Dcm.o
 .debug_abbrev  0x00006bad       0x26 PduR_SoAd.o
 .debug_abbrev  0x00006bd3      0x115 PduR_Routing.o
 .debug_abbrev  0x00006ce8      0x131 PduR.o
 .debug_abbrev  0x00006e19      0x174 IoHwAb_Digital.o
 .debug_abbrev  0x00006f8d      0x1c2 ramlog.o
 .debug_abbrev  0x0000714f      0x151 cirq_buffer.o
 .debug_abbrev  0x000072a0      0x255 clib_port.o
 .debug_abbrev  0x000074f5       0x8a clib.o
 .debug_abbrev  0x0000757f      0x1fa printf.o
 .debug_abbrev  0x00007779       0xbd xtoa.o
 .debug_abbrev  0x00007836      0x1d3 stm32f10x_gpio.o
 .debug_abbrev  0x00007a09       0x42 d:/research/pwc/arccore/com.arccore.a4.arm.bundle-win32.win32.x86_64/msys/opt/arm-none-eabi/bin/../lib/gcc/arm-none-eabi/4.8.2/../../../../arm-none-eabi/lib/thumb/armv7-m\libc.a(lib_a-abort.o)
 .debug_abbrev  0x00007a4b      0x1cb d:/research/pwc/arccore/com.arccore.a4.arm.bundle-win32.win32.x86_64/msys/opt/arm-none-eabi/bin/../lib/gcc/arm-none-eabi/4.8.2/../../../../arm-none-eabi/lib/thumb/armv7-m\libc.a(lib_a-fopen.o)
 .debug_abbrev  0x00007c16      0x20e d:/research/pwc/arccore/com.arccore.a4.arm.bundle-win32.win32.x86_64/msys/opt/arm-none-eabi/bin/../lib/gcc/arm-none-eabi/4.8.2/../../../../arm-none-eabi/lib/thumb/armv7-m\libc.a(lib_a-fseek.o)
 .debug_abbrev  0x00007e24      0x1b6 d:/research/pwc/arccore/com.arccore.a4.arm.bundle-win32.win32.x86_64/msys/opt/arm-none-eabi/bin/../lib/gcc/arm-none-eabi/4.8.2/../../../../arm-none-eabi/lib/thumb/armv7-m\libc.a(lib_a-fstatr.o)
 .debug_abbrev  0x00007fda      0x162 d:/research/pwc/arccore/com.arccore.a4.arm.bundle-win32.win32.x86_64/msys/opt/arm-none-eabi/bin/../lib/gcc/arm-none-eabi/4.8.2/../../../../arm-none-eabi/lib/thumb/armv7-m\libc.a(lib_a-impure.o)
 .debug_abbrev  0x0000813c      0x18d d:/research/pwc/arccore/com.arccore.a4.arm.bundle-win32.win32.x86_64/msys/opt/arm-none-eabi/bin/../lib/gcc/arm-none-eabi/4.8.2/../../../../arm-none-eabi/lib/thumb/armv7-m\libc.a(lib_a-makebuf.o)
 .debug_abbrev  0x000082c9      0x19c d:/research/pwc/arccore/com.arccore.a4.arm.bundle-win32.win32.x86_64/msys/opt/arm-none-eabi/bin/../lib/gcc/arm-none-eabi/4.8.2/../../../../arm-none-eabi/lib/thumb/armv7-m\libc.a(lib_a-malloc.o)
 .debug_abbrev  0x00008465      0x1df d:/research/pwc/arccore/com.arccore.a4.arm.bundle-win32.win32.x86_64/msys/opt/arm-none-eabi/bin/../lib/gcc/arm-none-eabi/4.8.2/../../../../arm-none-eabi/lib/thumb/armv7-m\libc.a(lib_a-mallocr.o)
 .debug_abbrev  0x00008644       0x7f d:/research/pwc/arccore/com.arccore.a4.arm.bundle-win32.win32.x86_64/msys/opt/arm-none-eabi/bin/../lib/gcc/arm-none-eabi/4.8.2/../../../../arm-none-eabi/lib/thumb/armv7-m\libc.a(lib_a-memcmp.o)
 .debug_abbrev  0x000086c3       0x9c d:/research/pwc/arccore/com.arccore.a4.arm.bundle-win32.win32.x86_64/msys/opt/arm-none-eabi/bin/../lib/gcc/arm-none-eabi/4.8.2/../../../../arm-none-eabi/lib/thumb/armv7-m\libc.a(lib_a-memcpy-stub.o)
 .debug_abbrev  0x0000875f       0x90 d:/research/pwc/arccore/com.arccore.a4.arm.bundle-win32.win32.x86_64/msys/opt/arm-none-eabi/bin/../lib/gcc/arm-none-eabi/4.8.2/../../../../arm-none-eabi/lib/thumb/armv7-m\libc.a(lib_a-memset.o)
 .debug_abbrev  0x000087ef      0x17c d:/research/pwc/arccore/com.arccore.a4.arm.bundle-win32.win32.x86_64/msys/opt/arm-none-eabi/bin/../lib/gcc/arm-none-eabi/4.8.2/../../../../arm-none-eabi/lib/thumb/armv7-m\libc.a(lib_a-mlock.o)
 .debug_abbrev  0x0000896b      0x1b6 d:/research/pwc/arccore/com.arccore.a4.arm.bundle-win32.win32.x86_64/msys/opt/arm-none-eabi/bin/../lib/gcc/arm-none-eabi/4.8.2/../../../../arm-none-eabi/lib/thumb/armv7-m\libc.a(lib_a-openr.o)
 .debug_abbrev  0x00008b21      0x1ec d:/research/pwc/arccore/com.arccore.a4.arm.bundle-win32.win32.x86_64/msys/opt/arm-none-eabi/bin/../lib/gcc/arm-none-eabi/4.8.2/../../../../arm-none-eabi/lib/thumb/armv7-m\libc.a(lib_a-reent.o)
 .debug_abbrev  0x00008d0d      0x1b4 d:/research/pwc/arccore/com.arccore.a4.arm.bundle-win32.win32.x86_64/msys/opt/arm-none-eabi/bin/../lib/gcc/arm-none-eabi/4.8.2/../../../../arm-none-eabi/lib/thumb/armv7-m\libc.a(lib_a-refill.o)
 .debug_abbrev  0x00008ec1      0x1b3 d:/research/pwc/arccore/com.arccore.a4.arm.bundle-win32.win32.x86_64/msys/opt/arm-none-eabi/bin/../lib/gcc/arm-none-eabi/4.8.2/../../../../arm-none-eabi/lib/thumb/armv7-m\libc.a(lib_a-sbrkr.o)
 .debug_abbrev  0x00009074      0x1c9 d:/research/pwc/arccore/com.arccore.a4.arm.bundle-win32.win32.x86_64/msys/opt/arm-none-eabi/bin/../lib/gcc/arm-none-eabi/4.8.2/../../../../arm-none-eabi/lib/thumb/armv7-m\libc.a(lib_a-signal.o)
 .debug_abbrev  0x0000923d      0x1a7 d:/research/pwc/arccore/com.arccore.a4.arm.bundle-win32.win32.x86_64/msys/opt/arm-none-eabi/bin/../lib/gcc/arm-none-eabi/4.8.2/../../../../arm-none-eabi/lib/thumb/armv7-m\libc.a(lib_a-signalr.o)
 .debug_abbrev  0x000093e4      0x1c5 d:/research/pwc/arccore/com.arccore.a4.arm.bundle-win32.win32.x86_64/msys/opt/arm-none-eabi/bin/../lib/gcc/arm-none-eabi/4.8.2/../../../../arm-none-eabi/lib/thumb/armv7-m\libc.a(lib_a-stdio.o)
 .debug_abbrev  0x000095a9       0x7d d:/research/pwc/arccore/com.arccore.a4.arm.bundle-win32.win32.x86_64/msys/opt/arm-none-eabi/bin/../lib/gcc/arm-none-eabi/4.8.2/../../../../arm-none-eabi/lib/thumb/armv7-m\libc.a(lib_a-strcmp.o)
 .debug_abbrev  0x00009626       0x63 d:/research/pwc/arccore/com.arccore.a4.arm.bundle-win32.win32.x86_64/msys/opt/arm-none-eabi/bin/../lib/gcc/arm-none-eabi/4.8.2/../../../../arm-none-eabi/lib/thumb/armv7-m\libc.a(lib_a-strcpy.o)
 .debug_abbrev  0x00009689       0x70 d:/research/pwc/arccore/com.arccore.a4.arm.bundle-win32.win32.x86_64/msys/opt/arm-none-eabi/bin/../lib/gcc/arm-none-eabi/4.8.2/../../../../arm-none-eabi/lib/thumb/armv7-m\libc.a(lib_a-strlen.o)
 .debug_abbrev  0x000096f9       0x90 d:/research/pwc/arccore/com.arccore.a4.arm.bundle-win32.win32.x86_64/msys/opt/arm-none-eabi/bin/../lib/gcc/arm-none-eabi/4.8.2/../../../../arm-none-eabi/lib/thumb/armv7-m\libc.a(lib_a-strncpy.o)
 .debug_abbrev  0x00009789      0x1dc d:/research/pwc/arccore/com.arccore.a4.arm.bundle-win32.win32.x86_64/msys/opt/arm-none-eabi/bin/../lib/gcc/arm-none-eabi/4.8.2/../../../../arm-none-eabi/lib/thumb/armv7-m\libc.a(lib_a-strtoul.o)
 .debug_abbrev  0x00009965      0x182 d:/research/pwc/arccore/com.arccore.a4.arm.bundle-win32.win32.x86_64/msys/opt/arm-none-eabi/bin/../lib/gcc/arm-none-eabi/4.8.2/../../../../arm-none-eabi/lib/thumb/armv7-m\libc.a(lib_a-sysread.o)
 .debug_abbrev  0x00009ae7      0x187 d:/research/pwc/arccore/com.arccore.a4.arm.bundle-win32.win32.x86_64/msys/opt/arm-none-eabi/bin/../lib/gcc/arm-none-eabi/4.8.2/../../../../arm-none-eabi/lib/thumb/armv7-m\libc.a(lib_a-syswrite.o)
 .debug_abbrev  0x00009c6e      0x1ac d:/research/pwc/arccore/com.arccore.a4.arm.bundle-win32.win32.x86_64/msys/opt/arm-none-eabi/bin/../lib/gcc/arm-none-eabi/4.8.2/../../../../arm-none-eabi/lib/thumb/armv7-m\libc.a(lib_a-writer.o)
 .debug_abbrev  0x00009e1a      0x1a7 d:/research/pwc/arccore/com.arccore.a4.arm.bundle-win32.win32.x86_64/msys/opt/arm-none-eabi/bin/../lib/gcc/arm-none-eabi/4.8.2/../../../../arm-none-eabi/lib/thumb/armv7-m\libc.a(lib_a-closer.o)
 .debug_abbrev  0x00009fc1       0x4e d:/research/pwc/arccore/com.arccore.a4.arm.bundle-win32.win32.x86_64/msys/opt/arm-none-eabi/bin/../lib/gcc/arm-none-eabi/4.8.2/../../../../arm-none-eabi/lib/thumb/armv7-m\libc.a(lib_a-ctype_.o)
 .debug_abbrev  0x0000a00f      0x1c5 d:/research/pwc/arccore/com.arccore.a4.arm.bundle-win32.win32.x86_64/msys/opt/arm-none-eabi/bin/../lib/gcc/arm-none-eabi/4.8.2/../../../../arm-none-eabi/lib/thumb/armv7-m\libc.a(lib_a-fflush.o)
 .debug_abbrev  0x0000a1d4      0x27e d:/research/pwc/arccore/com.arccore.a4.arm.bundle-win32.win32.x86_64/msys/opt/arm-none-eabi/bin/../lib/gcc/arm-none-eabi/4.8.2/../../../../arm-none-eabi/lib/thumb/armv7-m\libc.a(lib_a-findfp.o)
 .debug_abbrev  0x0000a452      0x18f d:/research/pwc/arccore/com.arccore.a4.arm.bundle-win32.win32.x86_64/msys/opt/arm-none-eabi/bin/../lib/gcc/arm-none-eabi/4.8.2/../../../../arm-none-eabi/lib/thumb/armv7-m\libc.a(lib_a-flags.o)
 .debug_abbrev  0x0000a5e1      0x1e1 d:/research/pwc/arccore/com.arccore.a4.arm.bundle-win32.win32.x86_64/msys/opt/arm-none-eabi/bin/../lib/gcc/arm-none-eabi/4.8.2/../../../../arm-none-eabi/lib/thumb/armv7-m\libc.a(lib_a-freer.o)
 .debug_abbrev  0x0000a7c2      0x18f d:/research/pwc/arccore/com.arccore.a4.arm.bundle-win32.win32.x86_64/msys/opt/arm-none-eabi/bin/../lib/gcc/arm-none-eabi/4.8.2/../../../../arm-none-eabi/lib/thumb/armv7-m\libc.a(lib_a-fwalk.o)
 .debug_abbrev  0x0000a951      0x1a7 d:/research/pwc/arccore/com.arccore.a4.arm.bundle-win32.win32.x86_64/msys/opt/arm-none-eabi/bin/../lib/gcc/arm-none-eabi/4.8.2/../../../../arm-none-eabi/lib/thumb/armv7-m\libc.a(lib_a-isattyr.o)
 .debug_abbrev  0x0000aaf8      0x1b6 d:/research/pwc/arccore/com.arccore.a4.arm.bundle-win32.win32.x86_64/msys/opt/arm-none-eabi/bin/../lib/gcc/arm-none-eabi/4.8.2/../../../../arm-none-eabi/lib/thumb/armv7-m\libc.a(lib_a-lseekr.o)
 .debug_abbrev  0x0000acae      0x1a7 d:/research/pwc/arccore/com.arccore.a4.arm.bundle-win32.win32.x86_64/msys/opt/arm-none-eabi/bin/../lib/gcc/arm-none-eabi/4.8.2/../../../../arm-none-eabi/lib/thumb/armv7-m\libc.a(lib_a-readr.o)
 .debug_abbrev  0x0000ae55      0x1bc d:/research/pwc/arccore/com.arccore.a4.arm.bundle-win32.win32.x86_64/msys/opt/arm-none-eabi/bin/../lib/gcc/arm-none-eabi/4.8.2/../../../../arm-none-eabi/lib/thumb/armv7-m\libc.a(lib_a-fclose.o)

.debug_line     0x00000000    0x12544
 *(.debug_line)
 .debug_line    0x00000000      0x14e Rte.o
 .debug_line    0x0000014e      0x15c Rte_Main.o
 .debug_line    0x000002aa       0x7d Rte_Calprms.o
 .debug_line    0x00000327      0x3b3 Rte_Internal.o
 .debug_line    0x000006da       0xce Rte_Callbacks.o
 .debug_line    0x000007a8      0x2d1 Rte_Fifo.o
 .debug_line    0x00000a79      0x1bd Rte_EndStopDtcType.o
 .debug_line    0x00000c36      0x1c6 Rte_IoHwAb.o
 .debug_line    0x00000dfc      0x1ab Rte_MotorDriverType.o
 .debug_line    0x00000fa7      0x1bf Rte_ObstacleDtcType.o
 .debug_line    0x00001166      0x1a1 Rte_SwitchType.o
 .debug_line    0x00001307      0x1b1 Rte_WinArbitratorType.o
 .debug_line    0x000014b8      0x1c6 Rte_WinControllerType.o
 .debug_line    0x0000167e      0x223 EndStopDtc.o
 .debug_line    0x000018a1       0x69 IoHwAb.o
 .debug_line    0x0000190a      0x22c MotorDriver.o
 .debug_line    0x00001b36      0x225 ObstacleDtc.o
 .debug_line    0x00001d5b      0x139 Switch.o
 .debug_line    0x00001e94      0x1db Tasks.o
 .debug_line    0x0000206f      0x252 WinArbitrator.o
 .debug_line    0x000022c1      0x312 WinController.o
 .debug_line    0x000025d3      0x33f stm3210c_eval.o
 .debug_line    0x00002912      0x6dc stm3210c_eval_ioe.o
 .debug_line    0x00002fee      0x1da system_stm32f10x.o
 .debug_line    0x000031c8      0x20d misc.o
 .debug_line    0x000033d5      0x25f stm32f10x_exti.o
 .debug_line    0x00003634      0x455 stm32f10x_usart.o
 .debug_line    0x00003a89      0x47e stm32f10x_i2c.o
 .debug_line    0x00003f07      0x3eb stm32f10x_spi.o
 .debug_line    0x000042f2      0x2be stm32f10x_dma.o
 .debug_line    0x000045b0      0x26c core_cm3.o
 .debug_line    0x0000481c       0xa8 startup_stm32f10x.o
 .debug_line    0x000048c4      0x532 stm32f10x_rcc.o
 .debug_line    0x00004df6      0x21e Os_Cfg.o
 .debug_line    0x00005014      0x3a9 EcuM.o
 .debug_line    0x000053bd      0x31a EcuM_Fixed.o
 .debug_line    0x000056d7      0x4e8 EcuM_Main.o
 .debug_line    0x00005bbf      0x2a6 EcuM_PBcfg.o
 .debug_line    0x00005e65      0x149 EcuM_PBHeader.o
 .debug_line    0x00005fae      0x4af EcuM_Callout_Stubs.o
 .debug_line    0x0000645d      0x4b9 Mcu.o
 .debug_line    0x00006916       0x1d Mcu_LCfg.o
 .debug_line    0x00006933      0x199 Mcu_PBcfg.o
 .debug_line    0x00006acc      0x2cd Dio.o
 .debug_line    0x00006d99      0x14b Dio_Lcfg.o
 .debug_line    0x00006ee4      0x27d Port.o
 .debug_line    0x00007161       0x1d Port_Lcfg.o
 .debug_line    0x0000717e      0x167 Port_PBcfg.o
 .debug_line    0x000072e5       0x85 arch_krn.o
 .debug_line    0x0000736a      0x446 os_event.o
 .debug_line    0x000077b0      0x3ae os_init.o
 .debug_line    0x00007b5e      0x26e arch.o
 .debug_line    0x00007dcc      0x8d4 os_task.o
 .debug_line    0x000086a0      0x40b os_resource.o
 .debug_line    0x00008aab      0x51d os_alarm.o
 .debug_line    0x00008fc8      0x609 os_sched_table.o
 .debug_line    0x000095d1      0x420 os_counter.o
 .debug_line    0x000099f1      0x23f sys_tick.o
 .debug_line    0x00009c30      0x569 os_isr.o
 .debug_line    0x0000a199      0x20a os_arctest.o
 .debug_line    0x0000a3a3      0x59f os_application.o
 .debug_line    0x0000a942      0x2c6 irq.o
 .debug_line    0x0000ac08      0x212 Det.o
 .debug_line    0x0000ae1a       0x1d Det_Cfg.o
 .debug_line    0x0000ae37      0x13e Com_Cfg.o
 .debug_line    0x0000af75      0x12c Com_PbCfg.o
 .debug_line    0x0000b0a1      0x63f Com_Com.o
 .debug_line    0x0000b6e0      0x3a8 Com_Sched.o
 .debug_line    0x0000ba88      0x44e Com.o
 .debug_line    0x0000bed6      0x47d Com_misc.o
 .debug_line    0x0000c353      0x172 PduR_CanNm.o
 .debug_line    0x0000c4c5      0x181 PduR_Com.o
 .debug_line    0x0000c646      0x697 PduR_Logic.o
 .debug_line    0x0000ccdd       0x1d PduR_LinIf.o
 .debug_line    0x0000ccfa      0x12e PduR_PbCfg.o
 .debug_line    0x0000ce28      0x140 PduR_Cfg.o
 .debug_line    0x0000cf68       0x1d PduR_CanIf.o
 .debug_line    0x0000cf85       0x1d PduR_CanTp.o
 .debug_line    0x0000cfa2       0x1d PduR_J1939Tp.o
 .debug_line    0x0000cfbf       0x1d PduR_IpduM.o
 .debug_line    0x0000cfdc       0x1d PduR_Dcm.o
 .debug_line    0x0000cff9       0x1d PduR_SoAd.o
 .debug_line    0x0000d016      0x208 PduR_Routing.o
 .debug_line    0x0000d21e      0x1a3 PduR.o
 .debug_line    0x0000d3c1      0x45f IoHwAb_Digital.o
 .debug_line    0x0000d820        0x0 IoHwAb_Analog.o
 .debug_line    0x0000d820        0x0 IoHwAb_Pwm.o
 .debug_line    0x0000d820      0x291 ramlog.o
 .debug_line    0x0000dab1      0x30b cirq_buffer.o
 .debug_line    0x0000ddbc      0x388 clib_port.o
 .debug_line    0x0000e144       0x55 clib.o
 .debug_line    0x0000e199      0x3e9 printf.o
 .debug_line    0x0000e582       0xa8 xtoa.o
 .debug_line    0x0000e62a      0x369 stm32f10x_gpio.o
 .debug_line    0x0000e993       0xbc d:/research/pwc/arccore/com.arccore.a4.arm.bundle-win32.win32.x86_64/msys/opt/arm-none-eabi/bin/../lib/gcc/arm-none-eabi/4.8.2/../../../../arm-none-eabi/lib/thumb/armv7-m\libc.a(lib_a-abort.o)
 .debug_line    0x0000ea4f      0x1a0 d:/research/pwc/arccore/com.arccore.a4.arm.bundle-win32.win32.x86_64/msys/opt/arm-none-eabi/bin/../lib/gcc/arm-none-eabi/4.8.2/../../../../arm-none-eabi/lib/thumb/armv7-m\libc.a(lib_a-fopen.o)
 .debug_line    0x0000ebef      0x259 d:/research/pwc/arccore/com.arccore.a4.arm.bundle-win32.win32.x86_64/msys/opt/arm-none-eabi/bin/../lib/gcc/arm-none-eabi/4.8.2/../../../../arm-none-eabi/lib/thumb/armv7-m\libc.a(lib_a-fseek.o)
 .debug_line    0x0000ee48      0x1aa d:/research/pwc/arccore/com.arccore.a4.arm.bundle-win32.win32.x86_64/msys/opt/arm-none-eabi/bin/../lib/gcc/arm-none-eabi/4.8.2/../../../../arm-none-eabi/lib/thumb/armv7-m\libc.a(lib_a-fstatr.o)
 .debug_line    0x0000eff2      0x12e d:/research/pwc/arccore/com.arccore.a4.arm.bundle-win32.win32.x86_64/msys/opt/arm-none-eabi/bin/../lib/gcc/arm-none-eabi/4.8.2/../../../../arm-none-eabi/lib/thumb/armv7-m\libc.a(lib_a-impure.o)
 .debug_line    0x0000f120      0x1d1 d:/research/pwc/arccore/com.arccore.a4.arm.bundle-win32.win32.x86_64/msys/opt/arm-none-eabi/bin/../lib/gcc/arm-none-eabi/4.8.2/../../../../arm-none-eabi/lib/thumb/armv7-m\libc.a(lib_a-makebuf.o)
 .debug_line    0x0000f2f1      0x191 d:/research/pwc/arccore/com.arccore.a4.arm.bundle-win32.win32.x86_64/msys/opt/arm-none-eabi/bin/../lib/gcc/arm-none-eabi/4.8.2/../../../../arm-none-eabi/lib/thumb/armv7-m\libc.a(lib_a-malloc.o)
 .debug_line    0x0000f482      0x2fa d:/research/pwc/arccore/com.arccore.a4.arm.bundle-win32.win32.x86_64/msys/opt/arm-none-eabi/bin/../lib/gcc/arm-none-eabi/4.8.2/../../../../arm-none-eabi/lib/thumb/armv7-m\libc.a(lib_a-mallocr.o)
 .debug_line    0x0000f77c      0x150 d:/research/pwc/arccore/com.arccore.a4.arm.bundle-win32.win32.x86_64/msys/opt/arm-none-eabi/bin/../lib/gcc/arm-none-eabi/4.8.2/../../../../arm-none-eabi/lib/thumb/armv7-m\libc.a(lib_a-memcmp.o)
 .debug_line    0x0000f8cc      0x16a d:/research/pwc/arccore/com.arccore.a4.arm.bundle-win32.win32.x86_64/msys/opt/arm-none-eabi/bin/../lib/gcc/arm-none-eabi/4.8.2/../../../../arm-none-eabi/lib/thumb/armv7-m\libc.a(lib_a-memcpy-stub.o)
 .debug_line    0x0000fa36      0x167 d:/research/pwc/arccore/com.arccore.a4.arm.bundle-win32.win32.x86_64/msys/opt/arm-none-eabi/bin/../lib/gcc/arm-none-eabi/4.8.2/../../../../arm-none-eabi/lib/thumb/armv7-m\libc.a(lib_a-memset.o)
 .debug_line    0x0000fb9d      0x140 d:/research/pwc/arccore/com.arccore.a4.arm.bundle-win32.win32.x86_64/msys/opt/arm-none-eabi/bin/../lib/gcc/arm-none-eabi/4.8.2/../../../../arm-none-eabi/lib/thumb/armv7-m\libc.a(lib_a-mlock.o)
 .debug_line    0x0000fcdd      0x194 d:/research/pwc/arccore/com.arccore.a4.arm.bundle-win32.win32.x86_64/msys/opt/arm-none-eabi/bin/../lib/gcc/arm-none-eabi/4.8.2/../../../../arm-none-eabi/lib/thumb/armv7-m\libc.a(lib_a-openr.o)
 .debug_line    0x0000fe71      0x18f d:/research/pwc/arccore/com.arccore.a4.arm.bundle-win32.win32.x86_64/msys/opt/arm-none-eabi/bin/../lib/gcc/arm-none-eabi/4.8.2/../../../../arm-none-eabi/lib/thumb/armv7-m\libc.a(lib_a-reent.o)
 .debug_line    0x00010000      0x1d9 d:/research/pwc/arccore/com.arccore.a4.arm.bundle-win32.win32.x86_64/msys/opt/arm-none-eabi/bin/../lib/gcc/arm-none-eabi/4.8.2/../../../../arm-none-eabi/lib/thumb/armv7-m\libc.a(lib_a-refill.o)
 .debug_line    0x000101d9      0x194 d:/research/pwc/arccore/com.arccore.a4.arm.bundle-win32.win32.x86_64/msys/opt/arm-none-eabi/bin/../lib/gcc/arm-none-eabi/4.8.2/../../../../arm-none-eabi/lib/thumb/armv7-m\libc.a(lib_a-sbrkr.o)
 .debug_line    0x0001036d      0x20b d:/research/pwc/arccore/com.arccore.a4.arm.bundle-win32.win32.x86_64/msys/opt/arm-none-eabi/bin/../lib/gcc/arm-none-eabi/4.8.2/../../../../arm-none-eabi/lib/thumb/armv7-m\libc.a(lib_a-signal.o)
 .debug_line    0x00010578      0x19c d:/research/pwc/arccore/com.arccore.a4.arm.bundle-win32.win32.x86_64/msys/opt/arm-none-eabi/bin/../lib/gcc/arm-none-eabi/4.8.2/../../../../arm-none-eabi/lib/thumb/armv7-m\libc.a(lib_a-signalr.o)
 .debug_line    0x00010714      0x1ad d:/research/pwc/arccore/com.arccore.a4.arm.bundle-win32.win32.x86_64/msys/opt/arm-none-eabi/bin/../lib/gcc/arm-none-eabi/4.8.2/../../../../arm-none-eabi/lib/thumb/armv7-m\libc.a(lib_a-stdio.o)
 .debug_line    0x000108c1       0xd6 d:/research/pwc/arccore/com.arccore.a4.arm.bundle-win32.win32.x86_64/msys/opt/arm-none-eabi/bin/../lib/gcc/arm-none-eabi/4.8.2/../../../../arm-none-eabi/lib/thumb/armv7-m\libc.a(lib_a-strcmp.o)
 .debug_line    0x00010997       0xca d:/research/pwc/arccore/com.arccore.a4.arm.bundle-win32.win32.x86_64/msys/opt/arm-none-eabi/bin/../lib/gcc/arm-none-eabi/4.8.2/../../../../arm-none-eabi/lib/thumb/armv7-m\libc.a(lib_a-strcpy.o)
 .debug_line    0x00010a61      0x135 d:/research/pwc/arccore/com.arccore.a4.arm.bundle-win32.win32.x86_64/msys/opt/arm-none-eabi/bin/../lib/gcc/arm-none-eabi/4.8.2/../../../../arm-none-eabi/lib/thumb/armv7-m\libc.a(lib_a-strlen.o)
 .debug_line    0x00010b96      0x158 d:/research/pwc/arccore/com.arccore.a4.arm.bundle-win32.win32.x86_64/msys/opt/arm-none-eabi/bin/../lib/gcc/arm-none-eabi/4.8.2/../../../../arm-none-eabi/lib/thumb/armv7-m\libc.a(lib_a-strncpy.o)
 .debug_line    0x00010cee      0x220 d:/research/pwc/arccore/com.arccore.a4.arm.bundle-win32.win32.x86_64/msys/opt/arm-none-eabi/bin/../lib/gcc/arm-none-eabi/4.8.2/../../../../arm-none-eabi/lib/thumb/armv7-m\libc.a(lib_a-strtoul.o)
 .debug_line    0x00010f0e      0x14f d:/research/pwc/arccore/com.arccore.a4.arm.bundle-win32.win32.x86_64/msys/opt/arm-none-eabi/bin/../lib/gcc/arm-none-eabi/4.8.2/../../../../arm-none-eabi/lib/thumb/armv7-m\libc.a(lib_a-sysread.o)
 .debug_line    0x0001105d      0x150 d:/research/pwc/arccore/com.arccore.a4.arm.bundle-win32.win32.x86_64/msys/opt/arm-none-eabi/bin/../lib/gcc/arm-none-eabi/4.8.2/../../../../arm-none-eabi/lib/thumb/armv7-m\libc.a(lib_a-syswrite.o)
 .debug_line    0x000111ad      0x195 d:/research/pwc/arccore/com.arccore.a4.arm.bundle-win32.win32.x86_64/msys/opt/arm-none-eabi/bin/../lib/gcc/arm-none-eabi/4.8.2/../../../../arm-none-eabi/lib/thumb/armv7-m\libc.a(lib_a-writer.o)
 .debug_line    0x00011342      0x195 d:/research/pwc/arccore/com.arccore.a4.arm.bundle-win32.win32.x86_64/msys/opt/arm-none-eabi/bin/../lib/gcc/arm-none-eabi/4.8.2/../../../../arm-none-eabi/lib/thumb/armv7-m\libc.a(lib_a-closer.o)
 .debug_line    0x000114d7       0x69 d:/research/pwc/arccore/com.arccore.a4.arm.bundle-win32.win32.x86_64/msys/opt/arm-none-eabi/bin/../lib/gcc/arm-none-eabi/4.8.2/../../../../arm-none-eabi/lib/thumb/armv7-m\libc.a(lib_a-ctype_.o)
 .debug_line    0x00011540      0x23a d:/research/pwc/arccore/com.arccore.a4.arm.bundle-win32.win32.x86_64/msys/opt/arm-none-eabi/bin/../lib/gcc/arm-none-eabi/4.8.2/../../../../arm-none-eabi/lib/thumb/armv7-m\libc.a(lib_a-fflush.o)
 .debug_line    0x0001177a      0x222 d:/research/pwc/arccore/com.arccore.a4.arm.bundle-win32.win32.x86_64/msys/opt/arm-none-eabi/bin/../lib/gcc/arm-none-eabi/4.8.2/../../../../arm-none-eabi/lib/thumb/armv7-m\libc.a(lib_a-findfp.o)
 .debug_line    0x0001199c      0x163 d:/research/pwc/arccore/com.arccore.a4.arm.bundle-win32.win32.x86_64/msys/opt/arm-none-eabi/bin/../lib/gcc/arm-none-eabi/4.8.2/../../../../arm-none-eabi/lib/thumb/armv7-m\libc.a(lib_a-flags.o)
 .debug_line    0x00011aff      0x201 d:/research/pwc/arccore/com.arccore.a4.arm.bundle-win32.win32.x86_64/msys/opt/arm-none-eabi/bin/../lib/gcc/arm-none-eabi/4.8.2/../../../../arm-none-eabi/lib/thumb/armv7-m\libc.a(lib_a-freer.o)
 .debug_line    0x00011d00      0x1cb d:/research/pwc/arccore/com.arccore.a4.arm.bundle-win32.win32.x86_64/msys/opt/arm-none-eabi/bin/../lib/gcc/arm-none-eabi/4.8.2/../../../../arm-none-eabi/lib/thumb/armv7-m\libc.a(lib_a-fwalk.o)
 .debug_line    0x00011ecb      0x196 d:/research/pwc/arccore/com.arccore.a4.arm.bundle-win32.win32.x86_64/msys/opt/arm-none-eabi/bin/../lib/gcc/arm-none-eabi/4.8.2/../../../../arm-none-eabi/lib/thumb/armv7-m\libc.a(lib_a-isattyr.o)
 .debug_line    0x00012061      0x195 d:/research/pwc/arccore/com.arccore.a4.arm.bundle-win32.win32.x86_64/msys/opt/arm-none-eabi/bin/../lib/gcc/arm-none-eabi/4.8.2/../../../../arm-none-eabi/lib/thumb/armv7-m\libc.a(lib_a-lseekr.o)
 .debug_line    0x000121f6      0x194 d:/research/pwc/arccore/com.arccore.a4.arm.bundle-win32.win32.x86_64/msys/opt/arm-none-eabi/bin/../lib/gcc/arm-none-eabi/4.8.2/../../../../arm-none-eabi/lib/thumb/armv7-m\libc.a(lib_a-readr.o)
 .debug_line    0x0001238a      0x1ba d:/research/pwc/arccore/com.arccore.a4.arm.bundle-win32.win32.x86_64/msys/opt/arm-none-eabi/bin/../lib/gcc/arm-none-eabi/4.8.2/../../../../arm-none-eabi/lib/thumb/armv7-m\libc.a(lib_a-fclose.o)

.debug_frame    0x00000000     0x6988
 *(.debug_frame)
 .debug_frame   0x00000000       0x50 Rte.o
 .debug_frame   0x00000050       0x44 Rte_Main.o
 .debug_frame   0x00000094       0x28 Rte_Calprms.o
 .debug_frame   0x000000bc      0x2ec Rte_Internal.o
 .debug_frame   0x000003a8       0xd4 Rte_Fifo.o
 .debug_frame   0x0000047c       0x2c Rte_EndStopDtcType.o
 .debug_frame   0x000004a8       0x50 Rte_IoHwAb.o
 .debug_frame   0x000004f8       0x2c Rte_MotorDriverType.o
 .debug_frame   0x00000524       0x2c Rte_ObstacleDtcType.o
 .debug_frame   0x00000550       0x2c Rte_SwitchType.o
 .debug_frame   0x0000057c       0x2c Rte_WinArbitratorType.o
 .debug_frame   0x000005a8       0x2c Rte_WinControllerType.o
 .debug_frame   0x000005d4       0x6c EndStopDtc.o
 .debug_frame   0x00000640       0x48 IoHwAb.o
 .debug_frame   0x00000688       0x88 MotorDriver.o
 .debug_frame   0x00000710       0x6c ObstacleDtc.o
 .debug_frame   0x0000077c       0x4c Switch.o
 .debug_frame   0x000007c8       0xf0 Tasks.o
 .debug_frame   0x000008b8       0x80 WinArbitrator.o
 .debug_frame   0x00000938       0xd4 WinController.o
 .debug_frame   0x00000a0c      0x184 stm3210c_eval.o
 .debug_frame   0x00000b90      0x464 stm3210c_eval_ioe.o
 .debug_frame   0x00000ff4       0x80 system_stm32f10x.o
 .debug_frame   0x00001074       0x9c misc.o
 .debug_frame   0x00001110       0xec stm32f10x_exti.o
 .debug_frame   0x000011fc      0x344 stm32f10x_usart.o
 .debug_frame   0x00001540      0x398 stm32f10x_i2c.o
 .debug_frame   0x000018d8      0x29c stm32f10x_spi.o
 .debug_frame   0x00001b74      0x144 stm32f10x_dma.o
 .debug_frame   0x00001cb8      0x210 core_cm3.o
 .debug_frame   0x00001ec8      0x484 stm32f10x_rcc.o
 .debug_frame   0x0000234c      0x198 EcuM.o
 .debug_frame   0x000024e4       0xf0 EcuM_Fixed.o
 .debug_frame   0x000025d4      0x1fc EcuM_Main.o
 .debug_frame   0x000027d0      0x2ec EcuM_Callout_Stubs.o
 .debug_frame   0x00002abc      0x2b0 Mcu.o
 .debug_frame   0x00002d6c      0x144 Dio.o
 .debug_frame   0x00002eb0       0x8c Port.o
 .debug_frame   0x00002f3c      0x150 os_event.o
 .debug_frame   0x0000308c       0xfc os_init.o
 .debug_frame   0x00003188       0xc8 arch.o
 .debug_frame   0x00003250      0x4f8 os_task.o
 .debug_frame   0x00003748      0x1a8 os_resource.o
 .debug_frame   0x000038f0      0x214 os_alarm.o
 .debug_frame   0x00003b04      0x264 os_sched_table.o
 .debug_frame   0x00003d68      0x1ac os_counter.o
 .debug_frame   0x00003f14       0x68 sys_tick.o
 .debug_frame   0x00003f7c      0x2a4 os_isr.o
 .debug_frame   0x00004220       0x68 os_arctest.o
 .debug_frame   0x00004288      0x294 os_application.o
 .debug_frame   0x0000451c      0x114 irq.o
 .debug_frame   0x00004630       0xbc Det.o
 .debug_frame   0x000046ec      0x2f0 Com_Com.o
 .debug_frame   0x000049dc       0xc8 Com_Sched.o
 .debug_frame   0x00004aa4      0x198 Com.o
 .debug_frame   0x00004c3c      0x174 Com_misc.o
 .debug_frame   0x00004db0       0x70 PduR_CanNm.o
 .debug_frame   0x00004e20       0x90 PduR_Com.o
 .debug_frame   0x00004eb0      0x32c PduR_Logic.o
 .debug_frame   0x000051dc       0xe4 PduR_Routing.o
 .debug_frame   0x000052c0       0x80 PduR.o
 .debug_frame   0x00005340      0x268 IoHwAb_Digital.o
 .debug_frame   0x000055a8       0xec ramlog.o
 .debug_frame   0x00005694      0x15c cirq_buffer.o
 .debug_frame   0x000057f0      0x188 clib_port.o
 .debug_frame   0x00005978      0x22c printf.o
 .debug_frame   0x00005ba4       0x6c xtoa.o
 .debug_frame   0x00005c10      0x210 stm32f10x_gpio.o
 .debug_frame   0x00005e20       0x2c d:/research/pwc/arccore/com.arccore.a4.arm.bundle-win32.win32.x86_64/msys/opt/arm-none-eabi/bin/../lib/gcc/arm-none-eabi/4.8.2/../../../../arm-none-eabi/lib/thumb/armv7-m\libc.a(lib_a-abort.o)
 .debug_frame   0x00005e4c       0x54 d:/research/pwc/arccore/com.arccore.a4.arm.bundle-win32.win32.x86_64/msys/opt/arm-none-eabi/bin/../lib/gcc/arm-none-eabi/4.8.2/../../../../arm-none-eabi/lib/thumb/armv7-m\libc.a(lib_a-fopen.o)
 .debug_frame   0x00005ea0       0x54 d:/research/pwc/arccore/com.arccore.a4.arm.bundle-win32.win32.x86_64/msys/opt/arm-none-eabi/bin/../lib/gcc/arm-none-eabi/4.8.2/../../../../arm-none-eabi/lib/thumb/armv7-m\libc.a(lib_a-fseek.o)
 .debug_frame   0x00005ef4       0x30 d:/research/pwc/arccore/com.arccore.a4.arm.bundle-win32.win32.x86_64/msys/opt/arm-none-eabi/bin/../lib/gcc/arm-none-eabi/4.8.2/../../../../arm-none-eabi/lib/thumb/armv7-m\libc.a(lib_a-fstatr.o)
 .debug_frame   0x00005f24       0x38 d:/research/pwc/arccore/com.arccore.a4.arm.bundle-win32.win32.x86_64/msys/opt/arm-none-eabi/bin/../lib/gcc/arm-none-eabi/4.8.2/../../../../arm-none-eabi/lib/thumb/armv7-m\libc.a(lib_a-makebuf.o)
 .debug_frame   0x00005f5c       0x50 d:/research/pwc/arccore/com.arccore.a4.arm.bundle-win32.win32.x86_64/msys/opt/arm-none-eabi/bin/../lib/gcc/arm-none-eabi/4.8.2/../../../../arm-none-eabi/lib/thumb/armv7-m\libc.a(lib_a-malloc.o)
 .debug_frame   0x00005fac       0x50 d:/research/pwc/arccore/com.arccore.a4.arm.bundle-win32.win32.x86_64/msys/opt/arm-none-eabi/bin/../lib/gcc/arm-none-eabi/4.8.2/../../../../arm-none-eabi/lib/thumb/armv7-m\libc.a(lib_a-mallocr.o)
 .debug_frame   0x00005ffc       0x2c d:/research/pwc/arccore/com.arccore.a4.arm.bundle-win32.win32.x86_64/msys/opt/arm-none-eabi/bin/../lib/gcc/arm-none-eabi/4.8.2/../../../../arm-none-eabi/lib/thumb/armv7-m\libc.a(lib_a-memcmp.o)
 .debug_frame   0x00006028       0x2c d:/research/pwc/arccore/com.arccore.a4.arm.bundle-win32.win32.x86_64/msys/opt/arm-none-eabi/bin/../lib/gcc/arm-none-eabi/4.8.2/../../../../arm-none-eabi/lib/thumb/armv7-m\libc.a(lib_a-memcpy-stub.o)
 .debug_frame   0x00006054       0x2c d:/research/pwc/arccore/com.arccore.a4.arm.bundle-win32.win32.x86_64/msys/opt/arm-none-eabi/bin/../lib/gcc/arm-none-eabi/4.8.2/../../../../arm-none-eabi/lib/thumb/armv7-m\libc.a(lib_a-memset.o)
 .debug_frame   0x00006080       0x48 d:/research/pwc/arccore/com.arccore.a4.arm.bundle-win32.win32.x86_64/msys/opt/arm-none-eabi/bin/../lib/gcc/arm-none-eabi/4.8.2/../../../../arm-none-eabi/lib/thumb/armv7-m\libc.a(lib_a-mlock.o)
 .debug_frame   0x000060c8       0x30 d:/research/pwc/arccore/com.arccore.a4.arm.bundle-win32.win32.x86_64/msys/opt/arm-none-eabi/bin/../lib/gcc/arm-none-eabi/4.8.2/../../../../arm-none-eabi/lib/thumb/armv7-m\libc.a(lib_a-openr.o)
 .debug_frame   0x000060f8       0x74 d:/research/pwc/arccore/com.arccore.a4.arm.bundle-win32.win32.x86_64/msys/opt/arm-none-eabi/bin/../lib/gcc/arm-none-eabi/4.8.2/../../../../arm-none-eabi/lib/thumb/armv7-m\libc.a(lib_a-reent.o)
 .debug_frame   0x0000616c       0x54 d:/research/pwc/arccore/com.arccore.a4.arm.bundle-win32.win32.x86_64/msys/opt/arm-none-eabi/bin/../lib/gcc/arm-none-eabi/4.8.2/../../../../arm-none-eabi/lib/thumb/armv7-m\libc.a(lib_a-refill.o)
 .debug_frame   0x000061c0       0x30 d:/research/pwc/arccore/com.arccore.a4.arm.bundle-win32.win32.x86_64/msys/opt/arm-none-eabi/bin/../lib/gcc/arm-none-eabi/4.8.2/../../../../arm-none-eabi/lib/thumb/armv7-m\libc.a(lib_a-sbrkr.o)
 .debug_frame   0x000061f0      0x10c d:/research/pwc/arccore/com.arccore.a4.arm.bundle-win32.win32.x86_64/msys/opt/arm-none-eabi/bin/../lib/gcc/arm-none-eabi/4.8.2/../../../../arm-none-eabi/lib/thumb/armv7-m\libc.a(lib_a-signal.o)
 .debug_frame   0x000062fc       0x50 d:/research/pwc/arccore/com.arccore.a4.arm.bundle-win32.win32.x86_64/msys/opt/arm-none-eabi/bin/../lib/gcc/arm-none-eabi/4.8.2/../../../../arm-none-eabi/lib/thumb/armv7-m\libc.a(lib_a-signalr.o)
 .debug_frame   0x0000634c       0xb4 d:/research/pwc/arccore/com.arccore.a4.arm.bundle-win32.win32.x86_64/msys/opt/arm-none-eabi/bin/../lib/gcc/arm-none-eabi/4.8.2/../../../../arm-none-eabi/lib/thumb/armv7-m\libc.a(lib_a-stdio.o)
 .debug_frame   0x00006400       0x30 d:/research/pwc/arccore/com.arccore.a4.arm.bundle-win32.win32.x86_64/msys/opt/arm-none-eabi/bin/../lib/gcc/arm-none-eabi/4.8.2/../../../../arm-none-eabi/lib/thumb/armv7-m\libc.a(lib_a-strcmp.o)
 .debug_frame   0x00006430       0x20 d:/research/pwc/arccore/com.arccore.a4.arm.bundle-win32.win32.x86_64/msys/opt/arm-none-eabi/bin/../lib/gcc/arm-none-eabi/4.8.2/../../../../arm-none-eabi/lib/thumb/armv7-m\libc.a(lib_a-strcpy.o)
 .debug_frame   0x00006450       0x20 d:/research/pwc/arccore/com.arccore.a4.arm.bundle-win32.win32.x86_64/msys/opt/arm-none-eabi/bin/../lib/gcc/arm-none-eabi/4.8.2/../../../../arm-none-eabi/lib/thumb/armv7-m\libc.a(lib_a-strlen.o)
 .debug_frame   0x00006470       0x2c d:/research/pwc/arccore/com.arccore.a4.arm.bundle-win32.win32.x86_64/msys/opt/arm-none-eabi/bin/../lib/gcc/arm-none-eabi/4.8.2/../../../../arm-none-eabi/lib/thumb/armv7-m\libc.a(lib_a-strncpy.o)
 .debug_frame   0x0000649c       0x5c d:/research/pwc/arccore/com.arccore.a4.arm.bundle-win32.win32.x86_64/msys/opt/arm-none-eabi/bin/../lib/gcc/arm-none-eabi/4.8.2/../../../../arm-none-eabi/lib/thumb/armv7-m\libc.a(lib_a-strtoul.o)
 .debug_frame   0x000064f8       0x30 d:/research/pwc/arccore/com.arccore.a4.arm.bundle-win32.win32.x86_64/msys/opt/arm-none-eabi/bin/../lib/gcc/arm-none-eabi/4.8.2/../../../../arm-none-eabi/lib/thumb/armv7-m\libc.a(lib_a-sysread.o)
 .debug_frame   0x00006528       0x30 d:/research/pwc/arccore/com.arccore.a4.arm.bundle-win32.win32.x86_64/msys/opt/arm-none-eabi/bin/../lib/gcc/arm-none-eabi/4.8.2/../../../../arm-none-eabi/lib/thumb/armv7-m\libc.a(lib_a-syswrite.o)
 .debug_frame   0x00006558       0x30 d:/research/pwc/arccore/com.arccore.a4.arm.bundle-win32.win32.x86_64/msys/opt/arm-none-eabi/bin/../lib/gcc/arm-none-eabi/4.8.2/../../../../arm-none-eabi/lib/thumb/armv7-m\libc.a(lib_a-writer.o)
 .debug_frame   0x00006588       0x30 d:/research/pwc/arccore/com.arccore.a4.arm.bundle-win32.win32.x86_64/msys/opt/arm-none-eabi/bin/../lib/gcc/arm-none-eabi/4.8.2/../../../../arm-none-eabi/lib/thumb/armv7-m\libc.a(lib_a-closer.o)
 .debug_frame   0x000065b8       0x74 d:/research/pwc/arccore/com.arccore.a4.arm.bundle-win32.win32.x86_64/msys/opt/arm-none-eabi/bin/../lib/gcc/arm-none-eabi/4.8.2/../../../../arm-none-eabi/lib/thumb/armv7-m\libc.a(lib_a-fflush.o)
 .debug_frame   0x0000662c      0x19c d:/research/pwc/arccore/com.arccore.a4.arm.bundle-win32.win32.x86_64/msys/opt/arm-none-eabi/bin/../lib/gcc/arm-none-eabi/4.8.2/../../../../arm-none-eabi/lib/thumb/armv7-m\libc.a(lib_a-findfp.o)
 .debug_frame   0x000067c8       0x34 d:/research/pwc/arccore/com.arccore.a4.arm.bundle-win32.win32.x86_64/msys/opt/arm-none-eabi/bin/../lib/gcc/arm-none-eabi/4.8.2/../../../../arm-none-eabi/lib/thumb/armv7-m\libc.a(lib_a-flags.o)
 .debug_frame   0x000067fc       0x50 d:/research/pwc/arccore/com.arccore.a4.arm.bundle-win32.win32.x86_64/msys/opt/arm-none-eabi/bin/../lib/gcc/arm-none-eabi/4.8.2/../../../../arm-none-eabi/lib/thumb/armv7-m\libc.a(lib_a-freer.o)
 .debug_frame   0x0000684c       0x60 d:/research/pwc/arccore/com.arccore.a4.arm.bundle-win32.win32.x86_64/msys/opt/arm-none-eabi/bin/../lib/gcc/arm-none-eabi/4.8.2/../../../../arm-none-eabi/lib/thumb/armv7-m\libc.a(lib_a-fwalk.o)
 .debug_frame   0x000068ac       0x30 d:/research/pwc/arccore/com.arccore.a4.arm.bundle-win32.win32.x86_64/msys/opt/arm-none-eabi/bin/../lib/gcc/arm-none-eabi/4.8.2/../../../../arm-none-eabi/lib/thumb/armv7-m\libc.a(lib_a-isattyr.o)
 .debug_frame   0x000068dc       0x30 d:/research/pwc/arccore/com.arccore.a4.arm.bundle-win32.win32.x86_64/msys/opt/arm-none-eabi/bin/../lib/gcc/arm-none-eabi/4.8.2/../../../../arm-none-eabi/lib/thumb/armv7-m\libc.a(lib_a-lseekr.o)
 .debug_frame   0x0000690c       0x30 d:/research/pwc/arccore/com.arccore.a4.arm.bundle-win32.win32.x86_64/msys/opt/arm-none-eabi/bin/../lib/gcc/arm-none-eabi/4.8.2/../../../../arm-none-eabi/lib/thumb/armv7-m\libc.a(lib_a-readr.o)
 .debug_frame   0x0000693c       0x4c d:/research/pwc/arccore/com.arccore.a4.arm.bundle-win32.win32.x86_64/msys/opt/arm-none-eabi/bin/../lib/gcc/arm-none-eabi/4.8.2/../../../../arm-none-eabi/lib/thumb/armv7-m\libc.a(lib_a-fclose.o)

.debug_str      0x00000000     0xbb8a
 *(.debug_str)
 .debug_str     0x00000000      0x6f7 Rte.o
                                0x75c (size before relaxing)
 .debug_str     0x000006f7       0x91 Rte_Main.o
                                0x1e0 (size before relaxing)
 .debug_str     0x00000788       0x5e Rte_Calprms.o
                                0x1ad (size before relaxing)
 .debug_str     0x000007e6      0x620 Rte_Internal.o
                                0xd6c (size before relaxing)
 .debug_str     0x00000e06       0x4f Rte_Callbacks.o
                                0x72a (size before relaxing)
 .debug_str     0x00000e55       0xc5 Rte_Fifo.o
                                0x821 (size before relaxing)
 .debug_str     0x00000f1a       0xef Rte_EndStopDtcType.o
                                0x82c (size before relaxing)
 .debug_str     0x00001009       0xd5 Rte_IoHwAb.o
                                0x80a (size before relaxing)
 .debug_str     0x000010de       0xec Rte_MotorDriverType.o
                                0x84a (size before relaxing)
 .debug_str     0x000011ca       0xd9 Rte_ObstacleDtcType.o
                                0x838 (size before relaxing)
 .debug_str     0x000012a3       0xc4 Rte_SwitchType.o
                                0x84c (size before relaxing)
 .debug_str     0x00001367      0x11f Rte_WinArbitratorType.o
                                0x8ee (size before relaxing)
 .debug_str     0x00001486       0xed Rte_WinControllerType.o
                                0x9aa (size before relaxing)
 .debug_str     0x00001573       0x88 EndStopDtc.o
                                0x2f2 (size before relaxing)
 .debug_str     0x000015fb       0x4b IoHwAb.o
                                0x191 (size before relaxing)
 .debug_str     0x00001646       0x8e MotorDriver.o
                                0x305 (size before relaxing)
 .debug_str     0x000016d4       0x7b ObstacleDtc.o
                                0x2fb (size before relaxing)
 .debug_str     0x0000174f       0xa9 Switch.o
                                0x308 (size before relaxing)
 .debug_str     0x000017f8       0xc2 Tasks.o
                                0x823 (size before relaxing)
 .debug_str     0x000018ba      0x13f WinArbitrator.o
                                0x430 (size before relaxing)
 .debug_str     0x000019f9      0x27d WinController.o
                                0x620 (size before relaxing)
 .debug_str     0x00001c76      0xc04 stm3210c_eval.o
                                0xda8 (size before relaxing)
 .debug_str     0x0000287a      0x3fd stm3210c_eval_ioe.o
                                0xe28 (size before relaxing)
 .debug_str     0x00002c77      0x19a system_stm32f10x.o
                                0x309 (size before relaxing)
 .debug_str     0x00002e11      0x178 misc.o
                                0x411 (size before relaxing)
 .debug_str     0x00002f89      0x135 stm32f10x_exti.o
                                0x3ac (size before relaxing)
 .debug_str     0x000030be      0x428 stm32f10x_usart.o
                                0x6de (size before relaxing)
 .debug_str     0x000034e6      0x34a stm32f10x_i2c.o
                                0x68c (size before relaxing)
 .debug_str     0x00003830      0x2e9 stm32f10x_spi.o
                                0x698 (size before relaxing)
 .debug_str     0x00003b19      0x15c stm32f10x_dma.o
                                0x406 (size before relaxing)
 .debug_str     0x00003c75      0x157 core_cm3.o
                                0x2c1 (size before relaxing)
 .debug_str     0x00003dcc      0x48d stm32f10x_rcc.o
                                0x7b0 (size before relaxing)
 .debug_str     0x00004259      0xc09 Os_Cfg.o
                               0x17d2 (size before relaxing)
 .debug_str     0x00004e62     0x1344 EcuM.o
                               0x1b2b (size before relaxing)
 .debug_str     0x000061a6      0x16c EcuM_Fixed.o
                               0x1aca (size before relaxing)
 .debug_str     0x00006312      0x293 EcuM_Main.o
                               0x1c0d (size before relaxing)
 .debug_str     0x000065a5       0x8e EcuM_PBcfg.o
                               0x190e (size before relaxing)
 .debug_str     0x00006633       0x58 EcuM_PBHeader.o
                                0xbc5 (size before relaxing)
 .debug_str     0x0000668b      0x2ba EcuM_Callout_Stubs.o
                               0x1bc5 (size before relaxing)
 .debug_str     0x00006945      0x3ea Mcu.o
                                0x90f (size before relaxing)
 .debug_str     0x00006d2f       0x3f Mcu_LCfg.o
                                0x18e (size before relaxing)
 .debug_str     0x00006d6e       0x5b Mcu_PBcfg.o
                                0x38e (size before relaxing)
 .debug_str     0x00006dc9      0x1a1 Dio.o
                                0x408 (size before relaxing)
 .debug_str     0x00006f6a       0xbb Dio_Lcfg.o
                                0x2ee (size before relaxing)
 .debug_str     0x00007025      0x170 Port.o
                                0x678 (size before relaxing)
 .debug_str     0x00007195       0x40 Port_Lcfg.o
                                0x186 (size before relaxing)
 .debug_str     0x000071d5       0x60 Port_PBcfg.o
                                0x4b2 (size before relaxing)
 .debug_str     0x00007235      0x150 os_event.o
                               0x1486 (size before relaxing)
 .debug_str     0x00007385       0xb9 os_init.o
                               0x13e3 (size before relaxing)
 .debug_str     0x0000743e       0xb6 arch.o
                               0x137e (size before relaxing)
 .debug_str     0x000074f4      0x357 os_task.o
                               0x17c2 (size before relaxing)
 .debug_str     0x0000784b       0xc2 os_resource.o
                               0x14f4 (size before relaxing)
 .debug_str     0x0000790d      0x117 os_alarm.o
                               0x1497 (size before relaxing)
 .debug_str     0x00007a24      0x1fb os_sched_table.o
                               0x15a1 (size before relaxing)
 .debug_str     0x00007c1f       0x7b os_counter.o
                               0x1437 (size before relaxing)
 .debug_str     0x00007c9a       0x86 sys_tick.o
                               0x1719 (size before relaxing)
 .debug_str     0x00007d20      0x17b os_isr.o
                               0x18e0 (size before relaxing)
 .debug_str     0x00007e9b       0x73 os_arctest.o
                               0x1346 (size before relaxing)
 .debug_str     0x00007f0e      0x28d os_application.o
                               0x16c7 (size before relaxing)
 .debug_str     0x0000819b      0x122 irq.o
                               0x1851 (size before relaxing)
 .debug_str     0x000082bd      0x10e Det.o
                                0x2f5 (size before relaxing)
 .debug_str     0x000083cb       0x3e Det_Cfg.o
                                0x184 (size before relaxing)
 .debug_str     0x00008409       0xc9 Com_Cfg.o
                                0x23e (size before relaxing)
 .debug_str     0x000084d2       0x40 Com_PbCfg.o
                                0x833 (size before relaxing)
 .debug_str     0x00008512      0x593 Com_Com.o
                                0xecc (size before relaxing)
 .debug_str     0x00008aa5       0xa1 Com_Sched.o
                                0xb10 (size before relaxing)
 .debug_str     0x00008b46      0x2ea Com.o
                                0xdd8 (size before relaxing)
 .debug_str     0x00008e30      0x205 Com_misc.o
                                0xd68 (size before relaxing)
 .debug_str     0x00009035       0x94 PduR_CanNm.o
                                0x24f (size before relaxing)
 .debug_str     0x000090c9       0xc2 PduR_Com.o
                                0x28e (size before relaxing)
 .debug_str     0x0000918b      0x4dc PduR_Logic.o
                                0xb64 (size before relaxing)
 .debug_str     0x00009667       0x3f PduR_LinIf.o
                                0x18e (size before relaxing)
 .debug_str     0x000096a6       0x8c PduR_PbCfg.o
                                0x505 (size before relaxing)
 .debug_str     0x00009732       0x71 PduR_Cfg.o
                                0x3a3 (size before relaxing)
 .debug_str     0x000097a3       0x3f PduR_CanIf.o
                                0x18e (size before relaxing)
 .debug_str     0x000097e2       0x3f PduR_CanTp.o
                                0x18e (size before relaxing)
 .debug_str     0x00009821       0x41 PduR_J1939Tp.o
                                0x1c1 (size before relaxing)
 .debug_str     0x00009862       0x3f PduR_IpduM.o
                                0x18e (size before relaxing)
 .debug_str     0x000098a1       0x3d PduR_Dcm.o
                                0x18c (size before relaxing)
 .debug_str     0x000098de       0x3e PduR_SoAd.o
                                0x1be (size before relaxing)
 .debug_str     0x0000991c      0x107 PduR_Routing.o
                                0x6a5 (size before relaxing)
 .debug_str     0x00009a23       0x9e PduR.o
                                0x754 (size before relaxing)
 .debug_str     0x00009ac1      0x35c IoHwAb_Digital.o
                                0x589 (size before relaxing)
 .debug_str     0x00009e1d        0x0 IoHwAb_Analog.o
 .debug_str     0x00009e1d        0x0 IoHwAb_Pwm.o
 .debug_str     0x00009e1d      0x125 ramlog.o
                                0x2f3 (size before relaxing)
 .debug_str     0x00009f42       0xd0 cirq_buffer.o
                                0x2aa (size before relaxing)
 .debug_str     0x0000a012      0x1a7 clib_port.o
                                0x983 (size before relaxing)
 .debug_str     0x0000a1b9       0x68 clib.o
                                0x133 (size before relaxing)
 .debug_str     0x0000a221       0xa4 printf.o
                                0x842 (size before relaxing)
 .debug_str     0x0000a2c5       0x4b xtoa.o
                                0x192 (size before relaxing)
 .debug_str     0x0000a310      0x279 stm32f10x_gpio.o
                                0x567 (size before relaxing)
 .debug_str     0x0000a589       0xfd d:/research/pwc/arccore/com.arccore.a4.arm.bundle-win32.win32.x86_64/msys/opt/arm-none-eabi/bin/../lib/gcc/arm-none-eabi/4.8.2/../../../../arm-none-eabi/lib/thumb/armv7-m\libc.a(lib_a-abort.o)
                                0x18f (size before relaxing)
 .debug_str     0x0000a686      0x3e7 d:/research/pwc/arccore/com.arccore.a4.arm.bundle-win32.win32.x86_64/msys/opt/arm-none-eabi/bin/../lib/gcc/arm-none-eabi/4.8.2/../../../../arm-none-eabi/lib/thumb/armv7-m\libc.a(lib_a-fopen.o)
                                0x56d (size before relaxing)
 .debug_str     0x0000aa6d       0x67 d:/research/pwc/arccore/com.arccore.a4.arm.bundle-win32.win32.x86_64/msys/opt/arm-none-eabi/bin/../lib/gcc/arm-none-eabi/4.8.2/../../../../arm-none-eabi/lib/thumb/armv7-m\libc.a(lib_a-fseek.o)
                                0x67a (size before relaxing)
 .debug_str     0x0000aad4       0xa7 d:/research/pwc/arccore/com.arccore.a4.arm.bundle-win32.win32.x86_64/msys/opt/arm-none-eabi/bin/../lib/gcc/arm-none-eabi/4.8.2/../../../../arm-none-eabi/lib/thumb/armv7-m\libc.a(lib_a-fstatr.o)
                                0x640 (size before relaxing)
 .debug_str     0x0000ab7b       0x5d d:/research/pwc/arccore/com.arccore.a4.arm.bundle-win32.win32.x86_64/msys/opt/arm-none-eabi/bin/../lib/gcc/arm-none-eabi/4.8.2/../../../../arm-none-eabi/lib/thumb/armv7-m\libc.a(lib_a-impure.o)
                                0x562 (size before relaxing)
 .debug_str     0x0000abd8       0x57 d:/research/pwc/arccore/com.arccore.a4.arm.bundle-win32.win32.x86_64/msys/opt/arm-none-eabi/bin/../lib/gcc/arm-none-eabi/4.8.2/../../../../arm-none-eabi/lib/thumb/armv7-m\libc.a(lib_a-makebuf.o)
                                0x64e (size before relaxing)
 .debug_str     0x0000ac2f       0x49 d:/research/pwc/arccore/com.arccore.a4.arm.bundle-win32.win32.x86_64/msys/opt/arm-none-eabi/bin/../lib/gcc/arm-none-eabi/4.8.2/../../../../arm-none-eabi/lib/thumb/armv7-m\libc.a(lib_a-malloc.o)
                                0x564 (size before relaxing)
 .debug_str     0x0000ac78      0x20c d:/research/pwc/arccore/com.arccore.a4.arm.bundle-win32.win32.x86_64/msys/opt/arm-none-eabi/bin/../lib/gcc/arm-none-eabi/4.8.2/../../../../arm-none-eabi/lib/thumb/armv7-m\libc.a(lib_a-mallocr.o)
                                0x739 (size before relaxing)
 .debug_str     0x0000ae84       0xa1 d:/research/pwc/arccore/com.arccore.a4.arm.bundle-win32.win32.x86_64/msys/opt/arm-none-eabi/bin/../lib/gcc/arm-none-eabi/4.8.2/../../../../arm-none-eabi/lib/thumb/armv7-m\libc.a(lib_a-memcmp.o)
                                0x198 (size before relaxing)
 .debug_str     0x0000af25       0xda d:/research/pwc/arccore/com.arccore.a4.arm.bundle-win32.win32.x86_64/msys/opt/arm-none-eabi/bin/../lib/gcc/arm-none-eabi/4.8.2/../../../../arm-none-eabi/lib/thumb/armv7-m\libc.a(lib_a-memcpy-stub.o)
                                0x1d1 (size before relaxing)
 .debug_str     0x0000afff       0x53 d:/research/pwc/arccore/com.arccore.a4.arm.bundle-win32.win32.x86_64/msys/opt/arm-none-eabi/bin/../lib/gcc/arm-none-eabi/4.8.2/../../../../arm-none-eabi/lib/thumb/armv7-m\libc.a(lib_a-memset.o)
                                0x1ac (size before relaxing)
 .debug_str     0x0000b052       0x71 d:/research/pwc/arccore/com.arccore.a4.arm.bundle-win32.win32.x86_64/msys/opt/arm-none-eabi/bin/../lib/gcc/arm-none-eabi/4.8.2/../../../../arm-none-eabi/lib/thumb/armv7-m\libc.a(lib_a-mlock.o)
                                0x56b (size before relaxing)
 .debug_str     0x0000b0c3       0x45 d:/research/pwc/arccore/com.arccore.a4.arm.bundle-win32.win32.x86_64/msys/opt/arm-none-eabi/bin/../lib/gcc/arm-none-eabi/4.8.2/../../../../arm-none-eabi/lib/thumb/armv7-m\libc.a(lib_a-openr.o)
                                0x55a (size before relaxing)
 .debug_str     0x0000b108       0x77 d:/research/pwc/arccore/com.arccore.a4.arm.bundle-win32.win32.x86_64/msys/opt/arm-none-eabi/bin/../lib/gcc/arm-none-eabi/4.8.2/../../../../arm-none-eabi/lib/thumb/armv7-m\libc.a(lib_a-reent.o)
                                0x587 (size before relaxing)
 .debug_str     0x0000b17f       0x5c d:/research/pwc/arccore/com.arccore.a4.arm.bundle-win32.win32.x86_64/msys/opt/arm-none-eabi/bin/../lib/gcc/arm-none-eabi/4.8.2/../../../../arm-none-eabi/lib/thumb/armv7-m\libc.a(lib_a-refill.o)
                                0x56d (size before relaxing)
 .debug_str     0x0000b1db       0x45 d:/research/pwc/arccore/com.arccore.a4.arm.bundle-win32.win32.x86_64/msys/opt/arm-none-eabi/bin/../lib/gcc/arm-none-eabi/4.8.2/../../../../arm-none-eabi/lib/thumb/armv7-m\libc.a(lib_a-sbrkr.o)
                                0x559 (size before relaxing)
 .debug_str     0x0000b220       0xf4 d:/research/pwc/arccore/com.arccore.a4.arm.bundle-win32.win32.x86_64/msys/opt/arm-none-eabi/bin/../lib/gcc/arm-none-eabi/4.8.2/../../../../arm-none-eabi/lib/thumb/armv7-m\libc.a(lib_a-signal.o)
                                0x5b5 (size before relaxing)
 .debug_str     0x0000b314       0x51 d:/research/pwc/arccore/com.arccore.a4.arm.bundle-win32.win32.x86_64/msys/opt/arm-none-eabi/bin/../lib/gcc/arm-none-eabi/4.8.2/../../../../arm-none-eabi/lib/thumb/armv7-m\libc.a(lib_a-signalr.o)
                                0x55e (size before relaxing)
 .debug_str     0x0000b365       0x6a d:/research/pwc/arccore/com.arccore.a4.arm.bundle-win32.win32.x86_64/msys/opt/arm-none-eabi/bin/../lib/gcc/arm-none-eabi/4.8.2/../../../../arm-none-eabi/lib/thumb/armv7-m\libc.a(lib_a-stdio.o)
                                0x589 (size before relaxing)
 .debug_str     0x0000b3cf       0x5f d:/research/pwc/arccore/com.arccore.a4.arm.bundle-win32.win32.x86_64/msys/opt/arm-none-eabi/bin/../lib/gcc/arm-none-eabi/4.8.2/../../../../arm-none-eabi/lib/thumb/armv7-m\libc.a(lib_a-strcmp.o)
                                0x1af (size before relaxing)
 .debug_str     0x0000b42e       0x4e d:/research/pwc/arccore/com.arccore.a4.arm.bundle-win32.win32.x86_64/msys/opt/arm-none-eabi/bin/../lib/gcc/arm-none-eabi/4.8.2/../../../../arm-none-eabi/lib/thumb/armv7-m\libc.a(lib_a-strcpy.o)
                                0x19e (size before relaxing)
 .debug_str     0x0000b47c       0x4e d:/research/pwc/arccore/com.arccore.a4.arm.bundle-win32.win32.x86_64/msys/opt/arm-none-eabi/bin/../lib/gcc/arm-none-eabi/4.8.2/../../../../arm-none-eabi/lib/thumb/armv7-m\libc.a(lib_a-strlen.o)
                                0x1a5 (size before relaxing)
 .debug_str     0x0000b4ca       0x48 d:/research/pwc/arccore/com.arccore.a4.arm.bundle-win32.win32.x86_64/msys/opt/arm-none-eabi/bin/../lib/gcc/arm-none-eabi/4.8.2/../../../../arm-none-eabi/lib/thumb/armv7-m\libc.a(lib_a-strncpy.o)
                                0x1c2 (size before relaxing)
 .debug_str     0x0000b512       0x7b d:/research/pwc/arccore/com.arccore.a4.arm.bundle-win32.win32.x86_64/msys/opt/arm-none-eabi/bin/../lib/gcc/arm-none-eabi/4.8.2/../../../../arm-none-eabi/lib/thumb/armv7-m\libc.a(lib_a-strtoul.o)
                                0x58b (size before relaxing)
 .debug_str     0x0000b58d       0x9f d:/research/pwc/arccore/com.arccore.a4.arm.bundle-win32.win32.x86_64/msys/opt/arm-none-eabi/bin/../lib/gcc/arm-none-eabi/4.8.2/../../../../arm-none-eabi/lib/thumb/armv7-m\libc.a(lib_a-sysread.o)
                                0x556 (size before relaxing)
 .debug_str     0x0000b62c       0x43 d:/research/pwc/arccore/com.arccore.a4.arm.bundle-win32.win32.x86_64/msys/opt/arm-none-eabi/bin/../lib/gcc/arm-none-eabi/4.8.2/../../../../arm-none-eabi/lib/thumb/armv7-m\libc.a(lib_a-syswrite.o)
                                0x558 (size before relaxing)
 .debug_str     0x0000b66f       0x50 d:/research/pwc/arccore/com.arccore.a4.arm.bundle-win32.win32.x86_64/msys/opt/arm-none-eabi/bin/../lib/gcc/arm-none-eabi/4.8.2/../../../../arm-none-eabi/lib/thumb/armv7-m\libc.a(lib_a-writer.o)
                                0x556 (size before relaxing)
 .debug_str     0x0000b6bf       0x47 d:/research/pwc/arccore/com.arccore.a4.arm.bundle-win32.win32.x86_64/msys/opt/arm-none-eabi/bin/../lib/gcc/arm-none-eabi/4.8.2/../../../../arm-none-eabi/lib/thumb/armv7-m\libc.a(lib_a-closer.o)
                                0x546 (size before relaxing)
 .debug_str     0x0000b706       0xa0 d:/research/pwc/arccore/com.arccore.a4.arm.bundle-win32.win32.x86_64/msys/opt/arm-none-eabi/bin/../lib/gcc/arm-none-eabi/4.8.2/../../../../arm-none-eabi/lib/thumb/armv7-m\libc.a(lib_a-ctype_.o)
                                0x11a (size before relaxing)
 .debug_str     0x0000b7a6       0x64 d:/research/pwc/arccore/com.arccore.a4.arm.bundle-win32.win32.x86_64/msys/opt/arm-none-eabi/bin/../lib/gcc/arm-none-eabi/4.8.2/../../../../arm-none-eabi/lib/thumb/armv7-m\libc.a(lib_a-fflush.o)
                                0x58f (size before relaxing)
 .debug_str     0x0000b80a      0x175 d:/research/pwc/arccore/com.arccore.a4.arm.bundle-win32.win32.x86_64/msys/opt/arm-none-eabi/bin/../lib/gcc/arm-none-eabi/4.8.2/../../../../arm-none-eabi/lib/thumb/armv7-m\libc.a(lib_a-findfp.o)
                                0x6c1 (size before relaxing)
 .debug_str     0x0000b97f       0x4b d:/research/pwc/arccore/com.arccore.a4.arm.bundle-win32.win32.x86_64/msys/opt/arm-none-eabi/bin/../lib/gcc/arm-none-eabi/4.8.2/../../../../arm-none-eabi/lib/thumb/armv7-m\libc.a(lib_a-flags.o)
                                0x549 (size before relaxing)
 .debug_str     0x0000b9ca       0x3c d:/research/pwc/arccore/com.arccore.a4.arm.bundle-win32.win32.x86_64/msys/opt/arm-none-eabi/bin/../lib/gcc/arm-none-eabi/4.8.2/../../../../arm-none-eabi/lib/thumb/armv7-m\libc.a(lib_a-freer.o)
                                0x68b (size before relaxing)
 .debug_str     0x0000ba06       0x60 d:/research/pwc/arccore/com.arccore.a4.arm.bundle-win32.win32.x86_64/msys/opt/arm-none-eabi/bin/../lib/gcc/arm-none-eabi/4.8.2/../../../../arm-none-eabi/lib/thumb/armv7-m\libc.a(lib_a-fwalk.o)
                                0x567 (size before relaxing)
 .debug_str     0x0000ba66       0x49 d:/research/pwc/arccore/com.arccore.a4.arm.bundle-win32.win32.x86_64/msys/opt/arm-none-eabi/bin/../lib/gcc/arm-none-eabi/4.8.2/../../../../arm-none-eabi/lib/thumb/armv7-m\libc.a(lib_a-isattyr.o)
                                0x550 (size before relaxing)
 .debug_str     0x0000baaf       0x47 d:/research/pwc/arccore/com.arccore.a4.arm.bundle-win32.win32.x86_64/msys/opt/arm-none-eabi/bin/../lib/gcc/arm-none-eabi/4.8.2/../../../../arm-none-eabi/lib/thumb/armv7-m\libc.a(lib_a-lseekr.o)
                                0x55b (size before relaxing)
 .debug_str     0x0000baf6       0x45 d:/research/pwc/arccore/com.arccore.a4.arm.bundle-win32.win32.x86_64/msys/opt/arm-none-eabi/bin/../lib/gcc/arm-none-eabi/4.8.2/../../../../arm-none-eabi/lib/thumb/armv7-m\libc.a(lib_a-readr.o)
                                0x554 (size before relaxing)
 .debug_str     0x0000bb3b       0x4f d:/research/pwc/arccore/com.arccore.a4.arm.bundle-win32.win32.x86_64/msys/opt/arm-none-eabi/bin/../lib/gcc/arm-none-eabi/4.8.2/../../../../arm-none-eabi/lib/thumb/armv7-m\libc.a(lib_a-fclose.o)
                                0x55e (size before relaxing)

.debug_loc      0x00000000     0xb484
 *(.debug_loc)
 .debug_loc     0x00000000       0x70 Rte.o
 .debug_loc     0x00000070       0x58 Rte_Main.o
 .debug_loc     0x000000c8       0x2c Rte_Calprms.o
 .debug_loc     0x000000f4      0x504 Rte_Internal.o
 .debug_loc     0x000005f8      0x158 Rte_Fifo.o
 .debug_loc     0x00000750       0x2c Rte_EndStopDtcType.o
 .debug_loc     0x0000077c       0x70 Rte_IoHwAb.o
 .debug_loc     0x000007ec       0x2c Rte_MotorDriverType.o
 .debug_loc     0x00000818       0x2c Rte_ObstacleDtcType.o
 .debug_loc     0x00000844       0x2c Rte_SwitchType.o
 .debug_loc     0x00000870       0x2c Rte_WinArbitratorType.o
 .debug_loc     0x0000089c       0x2c Rte_WinControllerType.o
 .debug_loc     0x000008c8       0xa8 EndStopDtc.o
 .debug_loc     0x00000970       0x70 IoHwAb.o
 .debug_loc     0x000009e0       0xd4 MotorDriver.o
 .debug_loc     0x00000ab4       0xa8 ObstacleDtc.o
 .debug_loc     0x00000b5c       0x70 Switch.o
 .debug_loc     0x00000bcc      0x190 Tasks.o
 .debug_loc     0x00000d5c       0xd4 WinArbitrator.o
 .debug_loc     0x00000e30      0x164 WinController.o
 .debug_loc     0x00000f94      0x2a0 stm3210c_eval.o
 .debug_loc     0x00001234      0x792 stm3210c_eval_ioe.o
 .debug_loc     0x000019c6       0xc8 system_stm32f10x.o
 .debug_loc     0x00001a8e      0x118 misc.o
 .debug_loc     0x00001ba6      0x1b4 stm32f10x_exti.o
 .debug_loc     0x00001d5a      0x658 stm32f10x_usart.o
 .debug_loc     0x000023b2      0x700 stm32f10x_i2c.o
 .debug_loc     0x00002ab2      0x508 stm32f10x_spi.o
 .debug_loc     0x00002fba      0x268 stm32f10x_dma.o
 .debug_loc     0x00003222      0x380 core_cm3.o
 .debug_loc     0x000035a2      0x8d4 stm32f10x_rcc.o
 .debug_loc     0x00003e76      0x2ec EcuM.o
 .debug_loc     0x00004162      0x1a8 EcuM_Fixed.o
 .debug_loc     0x0000430a      0x34c EcuM_Main.o
 .debug_loc     0x00004656      0x520 EcuM_Callout_Stubs.o
 .debug_loc     0x00004b76      0x4a8 Mcu.o
 .debug_loc     0x0000501e      0x230 Dio.o
 .debug_loc     0x0000524e       0xd4 Port.o
 .debug_loc     0x00005322      0x244 os_event.o
 .debug_loc     0x00005566      0x1a8 os_init.o
 .debug_loc     0x0000570e      0x14c arch.o
 .debug_loc     0x0000585a      0x8dc os_task.o
 .debug_loc     0x00006136      0x2e0 os_resource.o
 .debug_loc     0x00006416      0x3ac os_alarm.o
 .debug_loc     0x000067c2      0x454 os_sched_table.o
 .debug_loc     0x00006c16      0x2f8 os_counter.o
 .debug_loc     0x00006f0e       0x9c sys_tick.o
 .debug_loc     0x00006faa      0x4a8 os_isr.o
 .debug_loc     0x00007452       0xa8 os_arctest.o
 .debug_loc     0x000074fa      0x4c6 os_application.o
 .debug_loc     0x000079c0      0x1e0 irq.o
 .debug_loc     0x00007ba0      0x138 Det.o
 .debug_loc     0x00007cd8      0x535 Com_Com.o
 .debug_loc     0x0000820d      0x146 Com_Sched.o
 .debug_loc     0x00008353      0x2c2 Com.o
 .debug_loc     0x00008615      0x298 Com_misc.o
 .debug_loc     0x000088ad       0xa8 PduR_CanNm.o
 .debug_loc     0x00008955       0xe0 PduR_Com.o
 .debug_loc     0x00008a35      0x5b0 PduR_Logic.o
 .debug_loc     0x00008fe5      0x188 PduR_Routing.o
 .debug_loc     0x0000916d       0xd4 PduR.o
 .debug_loc     0x00009241      0x41c IoHwAb_Digital.o
 .debug_loc     0x0000965d      0x188 ramlog.o
 .debug_loc     0x000097e5      0x25e cirq_buffer.o
 .debug_loc     0x00009a43      0x2c0 clib_port.o
 .debug_loc     0x00009d03      0x3b1 printf.o
 .debug_loc     0x0000a0b4       0xa8 xtoa.o
 .debug_loc     0x0000a15c      0x3e4 stm32f10x_gpio.o
 .debug_loc     0x0000a540       0x2c d:/research/pwc/arccore/com.arccore.a4.arm.bundle-win32.win32.x86_64/msys/opt/arm-none-eabi/bin/../lib/gcc/arm-none-eabi/4.8.2/../../../../arm-none-eabi/lib/thumb/armv7-m\libc.a(lib_a-abort.o)
 .debug_loc     0x0000a56c       0x70 d:/research/pwc/arccore/com.arccore.a4.arm.bundle-win32.win32.x86_64/msys/opt/arm-none-eabi/bin/../lib/gcc/arm-none-eabi/4.8.2/../../../../arm-none-eabi/lib/thumb/armv7-m\libc.a(lib_a-fopen.o)
 .debug_loc     0x0000a5dc       0x72 d:/research/pwc/arccore/com.arccore.a4.arm.bundle-win32.win32.x86_64/msys/opt/arm-none-eabi/bin/../lib/gcc/arm-none-eabi/4.8.2/../../../../arm-none-eabi/lib/thumb/armv7-m\libc.a(lib_a-fseek.o)
 .debug_loc     0x0000a64e       0x38 d:/research/pwc/arccore/com.arccore.a4.arm.bundle-win32.win32.x86_64/msys/opt/arm-none-eabi/bin/../lib/gcc/arm-none-eabi/4.8.2/../../../../arm-none-eabi/lib/thumb/armv7-m\libc.a(lib_a-fstatr.o)
 .debug_loc     0x0000a686       0x3a d:/research/pwc/arccore/com.arccore.a4.arm.bundle-win32.win32.x86_64/msys/opt/arm-none-eabi/bin/../lib/gcc/arm-none-eabi/4.8.2/../../../../arm-none-eabi/lib/thumb/armv7-m\libc.a(lib_a-makebuf.o)
 .debug_loc     0x0000a6c0       0x70 d:/research/pwc/arccore/com.arccore.a4.arm.bundle-win32.win32.x86_64/msys/opt/arm-none-eabi/bin/../lib/gcc/arm-none-eabi/4.8.2/../../../../arm-none-eabi/lib/thumb/armv7-m\libc.a(lib_a-malloc.o)
 .debug_loc     0x0000a730       0x74 d:/research/pwc/arccore/com.arccore.a4.arm.bundle-win32.win32.x86_64/msys/opt/arm-none-eabi/bin/../lib/gcc/arm-none-eabi/4.8.2/../../../../arm-none-eabi/lib/thumb/armv7-m\libc.a(lib_a-mallocr.o)
 .debug_loc     0x0000a7a4       0x38 d:/research/pwc/arccore/com.arccore.a4.arm.bundle-win32.win32.x86_64/msys/opt/arm-none-eabi/bin/../lib/gcc/arm-none-eabi/4.8.2/../../../../arm-none-eabi/lib/thumb/armv7-m\libc.a(lib_a-memcmp.o)
 .debug_loc     0x0000a7dc       0x38 d:/research/pwc/arccore/com.arccore.a4.arm.bundle-win32.win32.x86_64/msys/opt/arm-none-eabi/bin/../lib/gcc/arm-none-eabi/4.8.2/../../../../arm-none-eabi/lib/thumb/armv7-m\libc.a(lib_a-memcpy-stub.o)
 .debug_loc     0x0000a814       0x38 d:/research/pwc/arccore/com.arccore.a4.arm.bundle-win32.win32.x86_64/msys/opt/arm-none-eabi/bin/../lib/gcc/arm-none-eabi/4.8.2/../../../../arm-none-eabi/lib/thumb/armv7-m\libc.a(lib_a-memset.o)
 .debug_loc     0x0000a84c       0x70 d:/research/pwc/arccore/com.arccore.a4.arm.bundle-win32.win32.x86_64/msys/opt/arm-none-eabi/bin/../lib/gcc/arm-none-eabi/4.8.2/../../../../arm-none-eabi/lib/thumb/armv7-m\libc.a(lib_a-mlock.o)
 .debug_loc     0x0000a8bc       0x38 d:/research/pwc/arccore/com.arccore.a4.arm.bundle-win32.win32.x86_64/msys/opt/arm-none-eabi/bin/../lib/gcc/arm-none-eabi/4.8.2/../../../../arm-none-eabi/lib/thumb/armv7-m\libc.a(lib_a-openr.o)
 .debug_loc     0x0000a8f4       0xa8 d:/research/pwc/arccore/com.arccore.a4.arm.bundle-win32.win32.x86_64/msys/opt/arm-none-eabi/bin/../lib/gcc/arm-none-eabi/4.8.2/../../../../arm-none-eabi/lib/thumb/armv7-m\libc.a(lib_a-reent.o)
 .debug_loc     0x0000a99c       0x70 d:/research/pwc/arccore/com.arccore.a4.arm.bundle-win32.win32.x86_64/msys/opt/arm-none-eabi/bin/../lib/gcc/arm-none-eabi/4.8.2/../../../../arm-none-eabi/lib/thumb/armv7-m\libc.a(lib_a-refill.o)
 .debug_loc     0x0000aa0c       0x38 d:/research/pwc/arccore/com.arccore.a4.arm.bundle-win32.win32.x86_64/msys/opt/arm-none-eabi/bin/../lib/gcc/arm-none-eabi/4.8.2/../../../../arm-none-eabi/lib/thumb/armv7-m\libc.a(lib_a-sbrkr.o)
 .debug_loc     0x0000aa44      0x1b4 d:/research/pwc/arccore/com.arccore.a4.arm.bundle-win32.win32.x86_64/msys/opt/arm-none-eabi/bin/../lib/gcc/arm-none-eabi/4.8.2/../../../../arm-none-eabi/lib/thumb/armv7-m\libc.a(lib_a-signal.o)
 .debug_loc     0x0000abf8       0x70 d:/research/pwc/arccore/com.arccore.a4.arm.bundle-win32.win32.x86_64/msys/opt/arm-none-eabi/bin/../lib/gcc/arm-none-eabi/4.8.2/../../../../arm-none-eabi/lib/thumb/armv7-m\libc.a(lib_a-signalr.o)
 .debug_loc     0x0000ac68      0x118 d:/research/pwc/arccore/com.arccore.a4.arm.bundle-win32.win32.x86_64/msys/opt/arm-none-eabi/bin/../lib/gcc/arm-none-eabi/4.8.2/../../../../arm-none-eabi/lib/thumb/armv7-m\libc.a(lib_a-stdio.o)
 .debug_loc     0x0000ad80       0x38 d:/research/pwc/arccore/com.arccore.a4.arm.bundle-win32.win32.x86_64/msys/opt/arm-none-eabi/bin/../lib/gcc/arm-none-eabi/4.8.2/../../../../arm-none-eabi/lib/thumb/armv7-m\libc.a(lib_a-strncpy.o)
 .debug_loc     0x0000adb8       0x70 d:/research/pwc/arccore/com.arccore.a4.arm.bundle-win32.win32.x86_64/msys/opt/arm-none-eabi/bin/../lib/gcc/arm-none-eabi/4.8.2/../../../../arm-none-eabi/lib/thumb/armv7-m\libc.a(lib_a-strtoul.o)
 .debug_loc     0x0000ae28       0x38 d:/research/pwc/arccore/com.arccore.a4.arm.bundle-win32.win32.x86_64/msys/opt/arm-none-eabi/bin/../lib/gcc/arm-none-eabi/4.8.2/../../../../arm-none-eabi/lib/thumb/armv7-m\libc.a(lib_a-sysread.o)
 .debug_loc     0x0000ae60       0x38 d:/research/pwc/arccore/com.arccore.a4.arm.bundle-win32.win32.x86_64/msys/opt/arm-none-eabi/bin/../lib/gcc/arm-none-eabi/4.8.2/../../../../arm-none-eabi/lib/thumb/armv7-m\libc.a(lib_a-syswrite.o)
 .debug_loc     0x0000ae98       0x38 d:/research/pwc/arccore/com.arccore.a4.arm.bundle-win32.win32.x86_64/msys/opt/arm-none-eabi/bin/../lib/gcc/arm-none-eabi/4.8.2/../../../../arm-none-eabi/lib/thumb/armv7-m\libc.a(lib_a-writer.o)
 .debug_loc     0x0000aed0       0x38 d:/research/pwc/arccore/com.arccore.a4.arm.bundle-win32.win32.x86_64/msys/opt/arm-none-eabi/bin/../lib/gcc/arm-none-eabi/4.8.2/../../../../arm-none-eabi/lib/thumb/armv7-m\libc.a(lib_a-closer.o)
 .debug_loc     0x0000af08       0x9c d:/research/pwc/arccore/com.arccore.a4.arm.bundle-win32.win32.x86_64/msys/opt/arm-none-eabi/bin/../lib/gcc/arm-none-eabi/4.8.2/../../../../arm-none-eabi/lib/thumb/armv7-m\libc.a(lib_a-fflush.o)
 .debug_loc     0x0000afa4      0x2bc d:/research/pwc/arccore/com.arccore.a4.arm.bundle-win32.win32.x86_64/msys/opt/arm-none-eabi/bin/../lib/gcc/arm-none-eabi/4.8.2/../../../../arm-none-eabi/lib/thumb/armv7-m\libc.a(lib_a-findfp.o)
 .debug_loc     0x0000b260       0x38 d:/research/pwc/arccore/com.arccore.a4.arm.bundle-win32.win32.x86_64/msys/opt/arm-none-eabi/bin/../lib/gcc/arm-none-eabi/4.8.2/../../../../arm-none-eabi/lib/thumb/armv7-m\libc.a(lib_a-flags.o)
 .debug_loc     0x0000b298       0x70 d:/research/pwc/arccore/com.arccore.a4.arm.bundle-win32.win32.x86_64/msys/opt/arm-none-eabi/bin/../lib/gcc/arm-none-eabi/4.8.2/../../../../arm-none-eabi/lib/thumb/armv7-m\libc.a(lib_a-freer.o)
 .debug_loc     0x0000b308       0x70 d:/research/pwc/arccore/com.arccore.a4.arm.bundle-win32.win32.x86_64/msys/opt/arm-none-eabi/bin/../lib/gcc/arm-none-eabi/4.8.2/../../../../arm-none-eabi/lib/thumb/armv7-m\libc.a(lib_a-fwalk.o)
 .debug_loc     0x0000b378       0x38 d:/research/pwc/arccore/com.arccore.a4.arm.bundle-win32.win32.x86_64/msys/opt/arm-none-eabi/bin/../lib/gcc/arm-none-eabi/4.8.2/../../../../arm-none-eabi/lib/thumb/armv7-m\libc.a(lib_a-isattyr.o)
 .debug_loc     0x0000b3b0       0x38 d:/research/pwc/arccore/com.arccore.a4.arm.bundle-win32.win32.x86_64/msys/opt/arm-none-eabi/bin/../lib/gcc/arm-none-eabi/4.8.2/../../../../arm-none-eabi/lib/thumb/armv7-m\libc.a(lib_a-lseekr.o)
 .debug_loc     0x0000b3e8       0x38 d:/research/pwc/arccore/com.arccore.a4.arm.bundle-win32.win32.x86_64/msys/opt/arm-none-eabi/bin/../lib/gcc/arm-none-eabi/4.8.2/../../../../arm-none-eabi/lib/thumb/armv7-m\libc.a(lib_a-readr.o)
 .debug_loc     0x0000b420       0x64 d:/research/pwc/arccore/com.arccore.a4.arm.bundle-win32.win32.x86_64/msys/opt/arm-none-eabi/bin/../lib/gcc/arm-none-eabi/4.8.2/../../../../arm-none-eabi/lib/thumb/armv7-m\libc.a(lib_a-fclose.o)

.debug_macinfo
 *(.debug_macinfo)

.debug_weaknames
 *(.debug_weaknames)

.debug_funcnames
 *(.debug_funcnames)

.debug_typenames
 *(.debug_typenames)

.debug_varnames
 *(.debug_varnames)
                0x00000000                __EXCEPT_START__ = 0x0
                0x00000000                __EXCEPT_END__ = 0x0
START GROUP
LOAD Rte.o
LOAD Rte_Main.o
LOAD Rte_Calprms.o
LOAD Rte_Internal.o
LOAD Rte_Callbacks.o
LOAD Rte_Fifo.o
LOAD Rte_EndStopDtcType.o
LOAD Rte_IoHwAb.o
LOAD Rte_MotorDriverType.o
LOAD Rte_ObstacleDtcType.o
LOAD Rte_SwitchType.o
LOAD Rte_WinArbitratorType.o
LOAD Rte_WinControllerType.o
LOAD EndStopDtc.o
LOAD IoHwAb.o
LOAD MotorDriver.o
LOAD ObstacleDtc.o
LOAD Switch.o
LOAD Tasks.o
LOAD WinArbitrator.o
LOAD WinController.o
LOAD stm3210c_eval.o
LOAD stm3210c_eval_ioe.o
LOAD system_stm32f10x.o
LOAD misc.o
LOAD stm32f10x_exti.o
LOAD stm32f10x_usart.o
LOAD stm32f10x_i2c.o
LOAD stm32f10x_spi.o
LOAD stm32f10x_dma.o
LOAD core_cm3.o
LOAD startup_stm32f10x.o
LOAD stm32f10x_rcc.o
LOAD Os_Cfg.o
LOAD EcuM.o
LOAD EcuM_Fixed.o
LOAD EcuM_Main.o
LOAD EcuM_PBcfg.o
LOAD EcuM_PBHeader.o
LOAD EcuM_Callout_Stubs.o
LOAD Mcu.o
LOAD Mcu_LCfg.o
LOAD Mcu_PBcfg.o
LOAD Dio.o
LOAD Dio_Lcfg.o
LOAD Port.o
LOAD Port_Lcfg.o
LOAD Port_PBcfg.o
LOAD arch_krn.o
LOAD os_event.o
LOAD os_init.o
LOAD arch.o
LOAD os_task.o
LOAD os_resource.o
LOAD os_alarm.o
LOAD os_sched_table.o
LOAD os_counter.o
LOAD sys_tick.o
LOAD os_isr.o
LOAD os_arctest.o
LOAD os_application.o
LOAD irq.o
LOAD Det.o
LOAD Det_Cfg.o
LOAD Com_Cfg.o
LOAD Com_PbCfg.o
LOAD Com_Com.o
LOAD Com_Sched.o
LOAD Com.o
LOAD Com_misc.o
LOAD PduR_CanNm.o
LOAD PduR_Com.o
LOAD PduR_Logic.o
LOAD PduR_LinIf.o
LOAD PduR_PbCfg.o
LOAD PduR_Cfg.o
LOAD PduR_CanIf.o
LOAD PduR_CanTp.o
LOAD PduR_J1939Tp.o
LOAD PduR_IpduM.o
LOAD PduR_Dcm.o
LOAD PduR_SoAd.o
LOAD PduR_Routing.o
LOAD PduR.o
LOAD IoHwAb_Digital.o
LOAD IoHwAb_Analog.o
LOAD IoHwAb_Pwm.o
LOAD ramlog.o
LOAD cirq_buffer.o
LOAD clib_port.o
LOAD clib.o
LOAD printf.o
LOAD xtoa.o
LOAD stm32f10x_gpio.o
LOAD d:/research/pwc/arccore/com.arccore.a4.arm.bundle-win32.win32.x86_64/msys/opt/arm-none-eabi/bin/../lib/gcc/arm-none-eabi/4.8.2/thumb/armv7-m\libgcc.a
LOAD d:/research/pwc/arccore/com.arccore.a4.arm.bundle-win32.win32.x86_64/msys/opt/arm-none-eabi/bin/../lib/gcc/arm-none-eabi/4.8.2/../../../../arm-none-eabi/lib/thumb/armv7-m\libc.a
END GROUP
OUTPUT(pwc.elf elf32-littlearm)

.debug_ranges   0x00000000     0x1af0
 .debug_ranges  0x00000000       0x18 Rte.o
 .debug_ranges  0x00000018       0x18 Rte_Main.o
 .debug_ranges  0x00000030       0x10 Rte_Calprms.o
 .debug_ranges  0x00000040       0xc8 Rte_Internal.o
 .debug_ranges  0x00000108       0x40 Rte_Fifo.o
 .debug_ranges  0x00000148       0x10 Rte_EndStopDtcType.o
 .debug_ranges  0x00000158       0x18 Rte_IoHwAb.o
 .debug_ranges  0x00000170       0x10 Rte_MotorDriverType.o
 .debug_ranges  0x00000180       0x10 Rte_ObstacleDtcType.o
 .debug_ranges  0x00000190       0x10 Rte_SwitchType.o
 .debug_ranges  0x000001a0       0x10 Rte_WinArbitratorType.o
 .debug_ranges  0x000001b0       0x10 Rte_WinControllerType.o
 .debug_ranges  0x000001c0       0x20 EndStopDtc.o
 .debug_ranges  0x000001e0       0x18 IoHwAb.o
 .debug_ranges  0x000001f8       0x28 MotorDriver.o
 .debug_ranges  0x00000220       0x20 ObstacleDtc.o
 .debug_ranges  0x00000240       0x18 Switch.o
 .debug_ranges  0x00000258       0x48 Tasks.o
 .debug_ranges  0x000002a0       0x28 WinArbitrator.o
 .debug_ranges  0x000002c8       0x40 WinController.o
 .debug_ranges  0x00000308       0x68 stm3210c_eval.o
 .debug_ranges  0x00000370      0x120 stm3210c_eval_ioe.o
 .debug_ranges  0x00000490       0x28 system_stm32f10x.o
 .debug_ranges  0x000004b8       0x30 misc.o
 .debug_ranges  0x000004e8       0x48 stm32f10x_exti.o
 .debug_ranges  0x00000530       0xf0 stm32f10x_usart.o
 .debug_ranges  0x00000620      0x108 stm32f10x_i2c.o
 .debug_ranges  0x00000728       0xc0 stm32f10x_spi.o
 .debug_ranges  0x000007e8       0x60 stm32f10x_dma.o
 .debug_ranges  0x00000848       0xa8 core_cm3.o
 .debug_ranges  0x000008f0       0x20 startup_stm32f10x.o
 .debug_ranges  0x00000910      0x150 stm32f10x_rcc.o
 .debug_ranges  0x00000a60       0x78 EcuM.o
 .debug_ranges  0x00000ad8       0x48 EcuM_Fixed.o
 .debug_ranges  0x00000b20       0x90 EcuM_Main.o
 .debug_ranges  0x00000bb0       0xd8 EcuM_Callout_Stubs.o
 .debug_ranges  0x00000c88       0xc0 Mcu.o
 .debug_ranges  0x00000d48       0x58 Dio.o
 .debug_ranges  0x00000da0       0x28 Port.o
 .debug_ranges  0x00000dc8       0x60 os_event.o
 .debug_ranges  0x00000e28       0x48 os_init.o
 .debug_ranges  0x00000e70       0x40 arch.o
 .debug_ranges  0x00000eb0      0x158 os_task.o
 .debug_ranges  0x00001008       0x78 os_resource.o
 .debug_ranges  0x00001080       0x90 os_alarm.o
 .debug_ranges  0x00001110       0xa8 os_sched_table.o
 .debug_ranges  0x000011b8       0x78 os_counter.o
 .debug_ranges  0x00001230       0x20 sys_tick.o
 .debug_ranges  0x00001250       0xc0 os_isr.o
 .debug_ranges  0x00001310       0x20 os_arctest.o
 .debug_ranges  0x00001330       0xb8 os_application.o
 .debug_ranges  0x000013e8       0x50 irq.o
 .debug_ranges  0x00001438       0x38 Det.o
 .debug_ranges  0x00001470       0xc8 Com_Com.o
 .debug_ranges  0x00001538       0x38 Com_Sched.o
 .debug_ranges  0x00001570       0x70 Com.o
 .debug_ranges  0x000015e0       0x68 Com_misc.o
 .debug_ranges  0x00001648       0x20 PduR_CanNm.o
 .debug_ranges  0x00001668       0x28 PduR_Com.o
 .debug_ranges  0x00001690       0xd8 PduR_Logic.o
 .debug_ranges  0x00001768       0x40 PduR_Routing.o
 .debug_ranges  0x000017a8       0x28 PduR.o
 .debug_ranges  0x000017d0       0xd0 IoHwAb_Digital.o
 .debug_ranges  0x000018a0       0x40 ramlog.o
 .debug_ranges  0x000018e0       0x60 cirq_buffer.o
 .debug_ranges  0x00001940       0x70 clib_port.o
 .debug_ranges  0x000019b0       0x88 printf.o
 .debug_ranges  0x00001a38       0x20 xtoa.o
 .debug_ranges  0x00001a58       0x98 stm32f10x_gpio.o
